
tank_trouble.elf:     file format elf32-littlenios2
tank_trouble.elf
architecture: nios2:r1, flags 0x00000112:
EXEC_P, HAS_SYMS, D_PAGED
start address 0x08000230

Program Header:
    LOAD off    0x00001000 vaddr 0x08000000 paddr 0x08000000 align 2**12
         filesz 0x00000020 memsz 0x00000020 flags r-x
    LOAD off    0x00001020 vaddr 0x08000020 paddr 0x08000020 align 2**12
         filesz 0x00014ec8 memsz 0x00014ec8 flags r-x
    LOAD off    0x00015ee8 vaddr 0x08014ee8 paddr 0x08016a30 align 2**12
         filesz 0x00001b48 memsz 0x00001b48 flags rw-
    LOAD off    0x00018578 vaddr 0x08018578 paddr 0x08018578 align 2**12
         filesz 0x00000000 memsz 0x000002f8 flags rw-

Sections:
Idx Name          Size      VMA       LMA       File off  Algn
  0 .entry        00000020  08000000  08000000  00001000  2**5
                  CONTENTS, ALLOC, LOAD, READONLY, CODE
  1 .exceptions   00000210  08000020  08000020  00001020  2**2
                  CONTENTS, ALLOC, LOAD, READONLY, CODE
  2 .text         000146b4  08000230  08000230  00001230  2**2
                  CONTENTS, ALLOC, LOAD, READONLY, CODE
  3 .rodata       00000604  080148e4  080148e4  000158e4  2**2
                  CONTENTS, ALLOC, LOAD, READONLY, DATA
  4 .rwdata       00001b48  08014ee8  08016a30  00015ee8  2**2
                  CONTENTS, ALLOC, LOAD, DATA, SMALL_DATA
  5 .bss          000002f8  08018578  08018578  00018578  2**2
                  ALLOC, SMALL_DATA
  6 .onchip_memory2_0 00000000  00000000  00000000  00017a30  2**0
                  CONTENTS
  7 .sdram        00000000  08018870  08018870  00017a30  2**0
                  CONTENTS
  8 .comment      00000023  00000000  00000000  00017a30  2**0
                  CONTENTS, READONLY
  9 .debug_aranges 000010f8  00000000  00000000  00017a58  2**3
                  CONTENTS, READONLY, DEBUGGING
 10 .debug_info   0002983a  00000000  00000000  00018b50  2**0
                  CONTENTS, READONLY, DEBUGGING
 11 .debug_abbrev 0000a881  00000000  00000000  0004238a  2**0
                  CONTENTS, READONLY, DEBUGGING
 12 .debug_line   0000d04d  00000000  00000000  0004cc0b  2**0
                  CONTENTS, READONLY, DEBUGGING
 13 .debug_frame  00002c38  00000000  00000000  00059c58  2**2
                  CONTENTS, READONLY, DEBUGGING
 14 .debug_str    000046ed  00000000  00000000  0005c890  2**0
                  CONTENTS, READONLY, DEBUGGING
 15 .debug_loc    00017d94  00000000  00000000  00060f7d  2**0
                  CONTENTS, READONLY, DEBUGGING
 16 .debug_alt_sim_info 00000040  00000000  00000000  00078d14  2**2
                  CONTENTS, READONLY, DEBUGGING
 17 .debug_ranges 000019b0  00000000  00000000  00078d58  2**3
                  CONTENTS, READONLY, DEBUGGING
 18 .thread_model 00000003  00000000  00000000  0007e392  2**0
                  CONTENTS, READONLY
 19 .cpu          0000000c  00000000  00000000  0007e395  2**0
                  CONTENTS, READONLY
 20 .qsys         00000001  00000000  00000000  0007e3a1  2**0
                  CONTENTS, READONLY
 21 .simulation_enabled 00000001  00000000  00000000  0007e3a2  2**0
                  CONTENTS, READONLY
 22 .sysid_hash   00000004  00000000  00000000  0007e3a3  2**0
                  CONTENTS, READONLY
 23 .sysid_base   00000004  00000000  00000000  0007e3a7  2**0
                  CONTENTS, READONLY
 24 .sysid_time   00000004  00000000  00000000  0007e3ab  2**0
                  CONTENTS, READONLY
 25 .stderr_dev   0000000b  00000000  00000000  0007e3af  2**0
                  CONTENTS, READONLY
 26 .stdin_dev    0000000b  00000000  00000000  0007e3ba  2**0
                  CONTENTS, READONLY
 27 .stdout_dev   0000000b  00000000  00000000  0007e3c5  2**0
                  CONTENTS, READONLY
 28 .sopc_system_name 00000009  00000000  00000000  0007e3d0  2**0
                  CONTENTS, READONLY
 29 .quartus_project_dir 0000001f  00000000  00000000  0007e3d9  2**0
                  CONTENTS, READONLY
 30 .jdi          00005017  00000000  00000000  0007e3f8  2**0
                  CONTENTS, READONLY
 31 .sopcinfo     0009d67a  00000000  00000000  0008340f  2**0
                  CONTENTS, READONLY
SYMBOL TABLE:
08000000 l    d  .entry	00000000 .entry
08000020 l    d  .exceptions	00000000 .exceptions
08000230 l    d  .text	00000000 .text
080148e4 l    d  .rodata	00000000 .rodata
08014ee8 l    d  .rwdata	00000000 .rwdata
08018578 l    d  .bss	00000000 .bss
00000000 l    d  .onchip_memory2_0	00000000 .onchip_memory2_0
08018870 l    d  .sdram	00000000 .sdram
00000000 l    d  .comment	00000000 .comment
00000000 l    d  .debug_aranges	00000000 .debug_aranges
00000000 l    d  .debug_info	00000000 .debug_info
00000000 l    d  .debug_abbrev	00000000 .debug_abbrev
00000000 l    d  .debug_line	00000000 .debug_line
00000000 l    d  .debug_frame	00000000 .debug_frame
00000000 l    d  .debug_str	00000000 .debug_str
00000000 l    d  .debug_loc	00000000 .debug_loc
00000000 l    d  .debug_alt_sim_info	00000000 .debug_alt_sim_info
00000000 l    d  .debug_ranges	00000000 .debug_ranges
00000000 l    df *ABS*	00000000 ../tank_trouble_bsp//obj/HAL/src/crt0.o
08000268 l       .text	00000000 alt_after_alt_main
00000000 l    df *ABS*	00000000 alt_irq_handler.c
00000000 l    df *ABS*	00000000 alt_instruction_exception_entry.c
00000000 l    df *ABS*	00000000 main.c
080169c4 l     O .rwdata	00000001 addr
00000000 l    df *ABS*	00000000 mazes.c
080169c8 l     O .rwdata	00000004 VISITED.3434
080169cc l     O .rwdata	00000004 PATH_S.3432
080169d0 l     O .rwdata	00000004 PATH_N.3430
080169d4 l     O .rwdata	00000004 PATH_W.3433
080169d8 l     O .rwdata	00000004 PATH_E.3431
080169dc l     O .rwdata	00000004 vga_ctrl.3571
00000000 l    df *ABS*	00000000 paired_stack.c
00000000 l    df *ABS*	00000000 stack.c
00000000 l    df *ABS*	00000000 HID.c
00000000 l    df *ABS*	00000000 MAX3421E.c
00000000 l    df *ABS*	00000000 transfer.c
08018588 l     O .bss	00000004 usb_delay.2608
0801858c l     O .bss	00000001 tmp_addr.2609
00000000 l    df *ABS*	00000000 lib2-divmod.c
00000000 l    df *ABS*	00000000 lib2-mul.c
00000000 l    df *ABS*	00000000 malloc.c
00000000 l    df *ABS*	00000000 mallocr.c
00000000 l    df *ABS*	00000000 memcpy.c
00000000 l    df *ABS*	00000000 memset.c
00000000 l    df *ABS*	00000000 printf.c
00000000 l    df *ABS*	00000000 putchar.c
00000000 l    df *ABS*	00000000 puts.c
00000000 l    df *ABS*	00000000 rand.c
00000000 l    df *ABS*	00000000 sbrkr.c
00000000 l    df *ABS*	00000000 strlen.c
00000000 l    df *ABS*	00000000 time.c
00000000 l    df *ABS*	00000000 vfprintf.c
08014c2e l     O .rodata	00000010 zeroes.4404
08007b34 l     F .text	000000bc __sbprintf
08014c3e l     O .rodata	00000010 blanks.4403
00000000 l    df *ABS*	00000000 wsetup.c
00000000 l    df *ABS*	00000000 dtoa.c
08007d44 l     F .text	00000228 quorem
00000000 l    df *ABS*	00000000 fflush.c
00000000 l    df *ABS*	00000000 findfp.c
0800989c l     F .text	00000008 __fp_unlock
080098b0 l     F .text	0000019c __sinit.part.1
08009a4c l     F .text	00000008 __fp_lock
00000000 l    df *ABS*	00000000 mallocr.c
00000000 l    df *ABS*	00000000 fvwrite.c
00000000 l    df *ABS*	00000000 fwalk.c
00000000 l    df *ABS*	00000000 gettimeofdayr.c
00000000 l    df *ABS*	00000000 impure.c
08015320 l     O .rwdata	00000424 impure_data
00000000 l    df *ABS*	00000000 int_errno.c
00000000 l    df *ABS*	00000000 locale.c
08015764 l     O .rwdata	00000020 lc_ctype_charset
08015744 l     O .rwdata	00000020 lc_message_charset
08015784 l     O .rwdata	00000038 lconv
00000000 l    df *ABS*	00000000 makebuf.c
00000000 l    df *ABS*	00000000 memchr.c
00000000 l    df *ABS*	00000000 memmove.c
00000000 l    df *ABS*	00000000 mprec.c
08014c70 l     O .rodata	0000000c p05.2768
00000000 l    df *ABS*	00000000 putc.c
00000000 l    df *ABS*	00000000 mallocr.c
00000000 l    df *ABS*	00000000 s_fpclassify.c
00000000 l    df *ABS*	00000000 stdio.c
00000000 l    df *ABS*	00000000 strcmp.c
00000000 l    df *ABS*	00000000 vfprintf.c
0800c614 l     F .text	000000fc __sprint_r.part.0
08014d94 l     O .rodata	00000010 zeroes.4349
0800dc50 l     F .text	000000bc __sbprintf
08014da4 l     O .rodata	00000010 blanks.4348
00000000 l    df *ABS*	00000000 wbuf.c
00000000 l    df *ABS*	00000000 writer.c
00000000 l    df *ABS*	00000000 closer.c
00000000 l    df *ABS*	00000000 mallocr.c
00000000 l    df *ABS*	00000000 fclose.c
00000000 l    df *ABS*	00000000 fputwc.c
00000000 l    df *ABS*	00000000 fstatr.c
00000000 l    df *ABS*	00000000 isattyr.c
00000000 l    df *ABS*	00000000 lseekr.c
00000000 l    df *ABS*	00000000 readr.c
00000000 l    df *ABS*	00000000 wcrtomb.c
00000000 l    df *ABS*	00000000 wctomb_r.c
00000000 l    df *ABS*	00000000 libgcc2.c
00000000 l    df *ABS*	00000000 libgcc2.c
00000000 l    df *ABS*	00000000 libgcc2.c
00000000 l    df *ABS*	00000000 adddf3.c
00000000 l    df *ABS*	00000000 divdf3.c
00000000 l    df *ABS*	00000000 eqdf2.c
00000000 l    df *ABS*	00000000 gedf2.c
00000000 l    df *ABS*	00000000 ledf2.c
00000000 l    df *ABS*	00000000 muldf3.c
00000000 l    df *ABS*	00000000 subdf3.c
00000000 l    df *ABS*	00000000 fixdfsi.c
00000000 l    df *ABS*	00000000 floatsidf.c
00000000 l    df *ABS*	00000000 floatunsidf.c
00000000 l    df *ABS*	00000000 libgcc2.c
00000000 l    df *ABS*	00000000 libgcc2.c
00000000 l    df *ABS*	00000000 alt_close.c
08011bc8 l     F .text	0000003c alt_get_errno
00000000 l    df *ABS*	00000000 alt_dev.c
08011cdc l     F .text	0000002c alt_dev_null_write
00000000 l    df *ABS*	00000000 alt_errno.c
00000000 l    df *ABS*	00000000 alt_fstat.c
08011d08 l     F .text	0000003c alt_get_errno
00000000 l    df *ABS*	00000000 alt_gettod.c
00000000 l    df *ABS*	00000000 alt_isatty.c
08011ff0 l     F .text	0000003c alt_get_errno
00000000 l    df *ABS*	00000000 alt_load.c
080120d8 l     F .text	00000068 alt_load_section
00000000 l    df *ABS*	00000000 alt_lseek.c
080121c4 l     F .text	0000003c alt_get_errno
00000000 l    df *ABS*	00000000 alt_main.c
00000000 l    df *ABS*	00000000 alt_malloc_lock.c
00000000 l    df *ABS*	00000000 alt_read.c
080123a0 l     F .text	0000003c alt_get_errno
00000000 l    df *ABS*	00000000 alt_release_fd.c
00000000 l    df *ABS*	00000000 alt_sbrk.c
08016a20 l     O .rwdata	00000004 heap_end
00000000 l    df *ABS*	00000000 alt_tick.c
00000000 l    df *ABS*	00000000 alt_usleep.c
00000000 l    df *ABS*	00000000 alt_write.c
080127e8 l     F .text	0000003c alt_get_errno
00000000 l    df *ABS*	00000000 alt_sys_init.c
08012924 l     F .text	00000034 alt_dev_reg
08015964 l     O .rwdata	00001060 jtag_uart_0
00000000 l    df *ABS*	00000000 altera_avalon_jtag_uart_fd.c
00000000 l    df *ABS*	00000000 altera_avalon_jtag_uart_init.c
08012c18 l     F .text	0000020c altera_avalon_jtag_uart_irq
08012e24 l     F .text	000000a0 altera_avalon_jtag_uart_timeout
00000000 l    df *ABS*	00000000 altera_avalon_jtag_uart_ioctl.c
00000000 l    df *ABS*	00000000 altera_avalon_jtag_uart_read.c
00000000 l    df *ABS*	00000000 altera_avalon_jtag_uart_write.c
00000000 l    df *ABS*	00000000 altera_avalon_spi.c
00000000 l    df *ABS*	00000000 altera_avalon_timer_sc.c
08013658 l     F .text	00000078 alt_avalon_timer_sc_irq
00000000 l    df *ABS*	00000000 alt_alarm_start.c
00000000 l    df *ABS*	00000000 alt_busy_sleep.c
00000000 l    df *ABS*	00000000 alt_dcache_flush_all.c
00000000 l    df *ABS*	00000000 alt_dev_llist_insert.c
080139f0 l     F .text	0000003c alt_get_errno
00000000 l    df *ABS*	00000000 alt_do_ctors.c
00000000 l    df *ABS*	00000000 alt_do_dtors.c
00000000 l    df *ABS*	00000000 alt_icache_flush_all.c
00000000 l    df *ABS*	00000000 alt_iic.c
00000000 l    df *ABS*	00000000 alt_iic_isr_register.c
00000000 l    df *ABS*	00000000 alt_io_redirect.c
08013e50 l     F .text	000000e4 alt_open_fd
00000000 l    df *ABS*	00000000 alt_irq_vars.c
00000000 l    df *ABS*	00000000 alt_open.c
08013fb0 l     F .text	0000003c alt_get_errno
08013fec l     F .text	000000ec alt_file_locked
00000000 l    df *ABS*	00000000 altera_nios2_gen2_irq.c
00000000 l    df *ABS*	00000000 alt_find_dev.c
00000000 l    df *ABS*	00000000 alt_find_file.c
00000000 l    df *ABS*	00000000 alt_get_fd.c
00000000 l    df *ABS*	00000000 atexit.c
00000000 l    df *ABS*	00000000 exit.c
00000000 l    df *ABS*	00000000 memcmp.c
00000000 l    df *ABS*	00000000 __atexit.c
00000000 l    df *ABS*	00000000 __call_atexit.c
00000000 l    df *ABS*	00000000 alt_exit.c
080185d4 g     O .bss	00000004 alt_instruction_exception_handler
08005598 g     F .text	00000018 putchar
0800bb44 g     F .text	00000074 _mprec_log10
0800bc30 g     F .text	0000008c __any_on
0800e35c g     F .text	00000054 _isatty_r
08014c7c g     O .rodata	00000028 __mprec_tinytens
080122dc g     F .text	0000007c alt_main
080169e4 g     O .rwdata	00000008 ctrl_xfers
080055b0 g     F .text	000000c0 _puts_r
08018770 g     O .bss	00000100 alt_irq
0800e3b0 g     F .text	00000060 _lseek_r
08004058 g     F .text	00000644 USB_Task
08016a30 g       *ABS*	00000000 __flash_rwdata_start
080105a0 g     F .text	00000088 .hidden __eqdf2
0800a6d0 g     F .text	0000005c _gettimeofday_r
08018870 g       *ABS*	00000000 __alt_heap_start
08005554 g     F .text	0000003c printf
0800e470 g     F .text	0000009c _wcrtomb_r
08003184 g     F .text	00000088 kbdPoll
0800c4d4 g     F .text	0000005c __sseek
08009bfc g     F .text	00000010 __sinit
0800dd0c g     F .text	00000140 __swbuf_r
0800a72c g     F .text	0000007c _setlocale_r
08009a54 g     F .text	00000078 __sfmoreglue
0801237c g     F .text	00000024 __malloc_unlock
0800026c g     F .text	000001f0 GetDriverandReport
0800aaa8 g     F .text	0000015c memmove
08009be4 g     F .text	00000018 _cleanup
0800ac04 g     F .text	000000a8 _Balloc
080032d8 g     F .text	00000088 MAXreg_wr
08014ee8 g     O .rwdata	00000030 ClientDriverTable
08010628 g     F .text	000000dc .hidden __gtdf2
08014234 g     F .text	00000024 altera_nios2_gen2_irq_init
0800469c g     F .text	0000002c MSDProbe
08000000 g     F .entry	0000000c __reset
0800268c g     F .text	00000074 createStack
08003b58 g     F .text	000000e8 XferCtrlData
08000020 g       *ABS*	00000000 __flash_exceptions_start
080185d8 g     O .bss	00000010 hid_ep
0800e300 g     F .text	0000005c _fstat_r
0801859c g     O .bss	00000004 errno
0800c450 g     F .text	00000008 __seofread
08002490 g     F .text	00000040 PisFull
080185c0 g     O .bss	00000004 alt_argv
0801e9c4 g       *ABS*	00000000 _gp
080127b8 g     F .text	00000030 usleep
080034cc g     F .text	00000074 MAXreg_rd
080157e4 g     O .rwdata	00000180 alt_fd_list
08002580 g     F .text	0000008c Ppop
080030bc g     F .text	00000040 HID_init
08005590 g     F .text	00000008 _putchar_r
08014258 g     F .text	00000090 alt_find_dev
080052b4 g     F .text	00000148 memcpy
0800260c g     F .text	00000080 Ppeek
080098a4 g     F .text	0000000c _cleanup_r
080119e0 g     F .text	000000dc .hidden __floatsidf
08013f34 g     F .text	0000007c alt_io_redirect
08010704 g     F .text	000000f4 .hidden __ltdf2
080148e4 g       *ABS*	00000000 __DTOR_END__
08005670 g     F .text	00000014 puts
080144b4 g     F .text	0000009c alt_exception_cause_generated_bad_addr
0800c388 g     F .text	00000074 __fpclassifyd
08002850 g     F .text	0000005c peek
0800baa0 g     F .text	000000a4 __ratio
0800dc34 g     F .text	0000001c __vfiprintf_internal
0801301c g     F .text	0000021c altera_avalon_jtag_uart_read
08004a80 g     F .text	00000014 malloc
08005524 g     F .text	00000030 _printf_r
00000000 g       *ABS*	00000000 __alt_mem_onchip_memory2_0
0800499c g     F .text	00000064 .hidden __udivsi3
0801202c g     F .text	000000ac isatty
08014ccc g     O .rodata	000000c8 __mprec_tens
0800a7a8 g     F .text	0000000c __locale_charset
080185ac g     O .bss	00000008 alt_timezone
08018598 g     O .bss	00000004 __malloc_top_pad
08000d6c g     F .text	000016a8 genMaze
080169ec g     O .rwdata	00000001 usb_task_state
08016a00 g     O .rwdata	00000004 __mb_cur_max
0800a7d8 g     F .text	0000000c _localeconv_r
08002700 g     F .text	00000040 isFull
0800b038 g     F .text	0000003c __i2b
0800a080 g     F .text	000004c8 __sfvwrite_r
08005700 g     F .text	00000054 _sbrk_r
0800e410 g     F .text	00000060 _read_r
08003814 g     F .text	00000094 MAX3421E_init
08000738 g     F .text	00000030 setKeycode
08016a18 g     O .rwdata	00000004 alt_max_fd
0800dff4 g     F .text	000000f0 _fclose_r
080024d0 g     F .text	00000030 PisEmpty
0800986c g     F .text	00000030 fflush
08018594 g     O .bss	00000004 __malloc_max_sbrked_mem
0800f324 g     F .text	000008ac .hidden __adddf3
0800b848 g     F .text	0000010c __b2d
0800ed60 g     F .text	000005c4 .hidden __umoddi3
08012200 g     F .text	000000dc lseek
080169f8 g     O .rwdata	00000004 _global_impure_ptr
0800be24 g     F .text	00000564 _realloc_r
08018870 g       *ABS*	00000000 __bss_end
08013d60 g     F .text	000000f0 alt_iic_isr_register
080126b0 g     F .text	00000108 alt_tick
0800e764 g     F .text	000005fc .hidden __udivdi3
0800e25c g     F .text	00000024 _fputwc_r
08014ca4 g     O .rodata	00000028 __mprec_bigtens
0800ae1c g     F .text	00000104 __s2b
08011abc g     F .text	000000a8 .hidden __floatunsidf
0800b588 g     F .text	00000060 __mcmp
080169e0 g     O .rwdata	00000004 SPI0
08009c1c g     F .text	00000018 __fp_lock_all
08013d14 g     F .text	0000004c alt_ic_irq_enabled
08012614 g     F .text	0000009c alt_alarm_stop
080185d0 g     O .bss	00000004 alt_irq_active
08004764 g     F .text	0000002c DummyProbe
080000fc g     F .exceptions	000000d4 alt_irq_handler
080157bc g     O .rwdata	00000028 alt_dev_null
080030fc g     F .text	00000088 mousePoll
08003668 g     F .text	00000024 Vbus_power
080139d0 g     F .text	00000020 alt_dcache_flush_all
0800af20 g     F .text	00000068 __hi0bits
08011960 g     F .text	00000080 .hidden __fixdfsi
08016a30 g       *ABS*	00000000 __ram_rwdata_end
08016a10 g     O .rwdata	00000008 alt_dev_list
08012824 g     F .text	00000100 write
0800bcbc g     F .text	000000a0 _putc_r
08014ee8 g       *ABS*	00000000 __ram_rodata_end
0801858d g     O .bss	00000001 usb_error
08011d44 g     F .text	000000b8 fstat
08010704 g     F .text	000000f4 .hidden __ledf2
0800b300 g     F .text	00000140 __pow5mult
0800c728 g     F .text	0000150c ___vfiprintf_internal_r
080185a8 g     O .bss	00000004 __nlocale_changed
08004a00 g     F .text	00000058 .hidden __umodsi3
08002500 g     F .text	00000080 Ppush
08018870 g       *ABS*	00000000 end
08012b58 g     F .text	000000c0 altera_avalon_jtag_uart_init
080001d0 g     F .exceptions	00000060 alt_instruction_exception_entry
08003cb4 g     F .text	0000017c XferDispatchPkt
080148e4 g       *ABS*	00000000 __CTOR_LIST__
0c000000 g       *ABS*	00000000 __alt_stack_pointer
080136d0 g     F .text	0000007c alt_avalon_timer_sc_init
08011b64 g     F .text	00000064 .hidden __clzsi2
08013238 g     F .text	00000224 altera_avalon_jtag_uart_write
08009c0c g     F .text	00000004 __sfp_lock_acquire
0800a9c4 g     F .text	000000e4 memchr
0800583c g     F .text	000022dc ___vfprintf_internal_r
080039d8 g     F .text	00000034 MaxGpxHandler
08009d70 g     F .text	00000310 _free_r
0800a7b4 g     F .text	00000010 __locale_mb_cur_max
08014730 g     F .text	00000180 __call_exitprocs
080185a4 g     O .bss	00000004 __mlocale_changed
080169f0 g     O .rwdata	00000004 __malloc_sbrk_base
08000230 g     F .text	0000003c _start
080185c8 g     O .bss	00000004 _alt_tick_rate
08003540 g     F .text	00000088 MAXbytes_rd
0800569c g     F .text	00000064 rand
0800b440 g     F .text	00000148 __lshift
0801345c g     F .text	000001fc alt_avalon_spi_command
080185cc g     O .bss	00000004 _alt_nticks
080123dc g     F .text	00000104 read
08012990 g     F .text	00000064 alt_sys_init
08018728 g     O .bss	00000048 devtable
08014618 g     F .text	00000118 __register_exitproc
08002cb4 g     F .text	00000408 HIDKProbe
080185e8 g     O .bss	00000018 msd_ep
0800b074 g     F .text	0000028c __multiply
08012ec4 g     F .text	00000068 altera_avalon_jtag_uart_close
08003fc0 g     F .text	00000098 USB_init
08018628 g     O .bss	00000100 bigbuf
08004a58 g     F .text	00000028 .hidden __mulsi3
08014ee8 g       *ABS*	00000000 __ram_rwdata_start
080148e4 g       *ABS*	00000000 __ram_rodata_start
08018600 g     O .bss	00000028 __malloc_current_mallinfo
08018584 g     O .bss	00000001 last_usb_task_state
0800b954 g     F .text	0000014c __d2b
0801857c g     O .bss	00000008 dev0ep
080004a0 g     F .text	00000048 clearLED
080129f4 g     F .text	00000060 altera_avalon_jtag_uart_read_fd
080143f0 g     F .text	000000c4 alt_get_fd
08013878 g     F .text	00000158 alt_busy_sleep
080046c8 g     F .text	00000038 MSDEventHandler
0800dec4 g     F .text	00000054 _close_r
0801459c g     F .text	0000007c memcmp
08012ab4 g     F .text	00000050 altera_avalon_jtag_uart_close_fd
08018870 g       *ABS*	00000000 __alt_stack_base
08012b04 g     F .text	00000054 altera_avalon_jtag_uart_ioctl_fd
08007bf0 g     F .text	00000154 __swsetup_r
0800fbd0 g     F .text	000009d0 .hidden __divdf3
08009acc g     F .text	00000118 __sfp
0800bbb8 g     F .text	00000078 __copybits
08014f18 g     O .rwdata	00000408 __malloc_av_
08009c18 g     F .text	00000004 __sinit_lock_release
0800472c g     F .text	00000038 CDCEventHandler
080107f8 g     F .text	0000086c .hidden __muldf3
08004790 g     F .text	00000038 DummyEventHandler
0800c3fc g     F .text	00000054 __sread
080142e8 g     F .text	00000108 alt_find_file
08013a2c g     F .text	000000a4 alt_dev_llist_insert
08012358 g     F .text	00000024 __malloc_lock
08012564 g     F .text	000000b0 sbrk
080027e8 g     F .text	00000068 pop
08009810 g     F .text	0000005c _fflush_r
0800df18 g     F .text	000000dc _calloc_r
08002414 g     F .text	0000007c createPStack
08011dfc g     F .text	000001f4 gettimeofday
08018578 g       *ABS*	00000000 __bss_start
0800368c g     F .text	00000188 MAX_busprobe
08018578 g     O .bss	00000002 hid_device
080053fc g     F .text	00000128 memset
08000768 g     F .text	00000604 main
080038a8 g     F .text	00000064 MAX3421E_Task
080185c4 g     O .bss	00000004 alt_envp
08018590 g     O .bss	00000004 __malloc_max_total_mem
08012a54 g     F .text	00000060 altera_avalon_jtag_uart_write_fd
0800de4c g     F .text	00000018 __swbuf
08005684 g     F .text	00000018 srand
08004820 g     F .text	00000084 ConvUTF8ToStr
0800c530 g     F .text	00000008 __sclose
0c000000 g       *ABS*	00000000 __alt_heap_limit
0800e0e4 g     F .text	00000014 fclose
08007f6c g     F .text	00001688 _dtoa_r
08004aa8 g     F .text	0000080c _malloc_r
0800e5cc g     F .text	00000030 __ascii_wctomb
080057ec g     F .text	00000050 time
08016a1c g     O .rwdata	00000004 alt_errno
0800a548 g     F .text	000000c4 _fwalk
0800bd5c g     F .text	000000c8 putc
080048a4 g     F .text	00000084 .hidden __divsi3
08003e30 g     F .text	00000190 XferInTransfer
08000600 g     F .text	00000138 printSignedHex1
08009c4c g     F .text	00000124 _malloc_trim_r
080148e4 g       *ABS*	00000000 __CTOR_END__
080047e8 g     F .text	00000038 GetDevtable
0800c538 g     F .text	000000dc strcmp
080148e4 g       *ABS*	00000000 __flash_rodata_start
080148e4 g       *ABS*	00000000 __DTOR_LIST__
08003c40 g     F .text	00000074 XferCtrlND
080105a0 g     F .text	00000088 .hidden __nedf2
080035c8 g     F .text	000000a0 MAX3421E_reset
08012958 g     F .text	00000038 alt_irq_init
080124e0 g     F .text	00000084 alt_release_fd
08014db4 g     O .rodata	00000100 .hidden __clz_tab
080185a0 g     O .bss	00000004 _PathLocale
08014550 g     F .text	00000014 atexit
0800de64 g     F .text	00000060 _write_r
0800a7e4 g     F .text	00000018 setlocale
080169fc g     O .rwdata	00000004 _impure_ptr
080185bc g     O .bss	00000004 alt_argc
080095f4 g     F .text	0000021c __sflush_r
08013b30 g     F .text	00000060 _do_dtors
0800a7d0 g     F .text	00000008 __locale_cjk_lang
08003360 g     F .text	0000016c MAXbytes_wr
08000020 g       .exceptions	00000000 alt_irq_entry
0800b7e4 g     F .text	00000064 __ulp
08009c34 g     F .text	00000018 __fp_unlock_all
08016a08 g     O .rwdata	00000008 alt_fs_list
08004700 g     F .text	0000002c CDCProbe
080185b4 g     O .bss	00000008 alt_resettime
08000020 g       *ABS*	00000000 __ram_exceptions_start
0800a7fc g     F .text	0000000c localeconv
0800045c g     F .text	00000044 setLED
080047c8 g     F .text	00000020 GetUsbTaskState
08013bb0 g     F .text	00000050 alt_ic_isr_register
08014920 g     O .rodata	00000010 devclasses
08016a30 g       *ABS*	00000000 _edata
08003244 g     F .text	00000038 HIDKEventHandler
08018870 g       *ABS*	00000000 _end
0800390c g     F .text	000000cc MaxIntHandler
0800e0f8 g     F .text	00000164 __fputwc
08000230 g       *ABS*	00000000 __ram_exceptions_end
08012f2c g     F .text	000000f0 altera_avalon_jtag_uart_ioctl
0800327c g     F .text	00000034 SPI_init
08013c88 g     F .text	0000008c alt_ic_irq_disable
0800c458 g     F .text	0000007c __swrite
080169f4 g     O .rwdata	00000004 __malloc_trim_threshold
0800a7c4 g     F .text	0000000c __locale_msgcharset
08014564 g     F .text	00000038 exit
0800a60c g     F .text	000000c4 _fwalk_reent
0800b5e8 g     F .text	000001fc __mdiff
08004928 g     F .text	00000074 .hidden __modsi3
0c000000 g       *ABS*	00000000 __alt_data_end
08000020 g     F .exceptions	00000000 alt_exception
08009c10 g     F .text	00000004 __sfp_lock_release
08000000 g       *ABS*	00000000 __alt_mem_sdram
0800320c g     F .text	00000038 HIDMEventHandler
080148b0 g     F .text	00000034 _exit
0801374c g     F .text	0000012c alt_alarm_start
080004e8 g     F .text	00000118 printSignedHex0
0800e658 g     F .text	0000010c .hidden __muldi3
0800a808 g     F .text	000001bc __smakebuf_r
08005754 g     F .text	00000098 strlen
08002740 g     F .text	00000030 isEmpty
080140d8 g     F .text	0000015c open
08010628 g     F .text	000000dc .hidden __gedf2
08016a04 g     O .rwdata	00000004 __wctomb
0800c710 g     F .text	00000018 __sprint_r
08013b90 g     F .text	00000020 alt_icache_flush_all
08016a2c g     O .rwdata	00000004 alt_priority_mask
08013c00 g     F .text	00000088 alt_ic_irq_enable
08007b18 g     F .text	0000001c __vfprintf_internal
080028ac g     F .text	00000408 HIDMProbe
0800e5fc g     F .text	0000005c _wctomb_r
080032b0 g     F .text	00000028 SPI_wr
08011064 g     F .text	000008fc .hidden __subdf3
0800af88 g     F .text	000000b0 __lo0bits
08002770 g     F .text	00000078 push
08016a24 g     O .rwdata	00000008 alt_alarm_list
08013ad0 g     F .text	00000060 _do_ctors
0800e50c g     F .text	000000c0 wcrtomb
08011c04 g     F .text	000000d8 close
08012140 g     F .text	00000084 alt_load
0800e280 g     F .text	00000080 fputwc
08004a94 g     F .text	00000014 free
08009c14 g     F .text	00000004 __sinit_lock_acquire
08003a0c g     F .text	0000014c XferCtrlReq
0800acd4 g     F .text	00000148 __multadd
0800acac g     F .text	00000028 _Bfree



Disassembly of section .entry:

08000000 <__reset>:
 * Jump to the _start entry point in the .text section if reset code
 * is allowed or if optimizing for RTL simulation.
 */
#if defined(ALT_ALLOW_CODE_AT_RESET) || defined(ALT_SIM_OPTIMIZE)
    /* Jump to the _start entry point in the .text section. */
    movhi r1, %hi(_start)
 8000000:	00420034 	movhi	at,2048
    ori r1, r1, %lo(_start)
 8000004:	08408c14 	ori	at,at,560
    jmp r1
 8000008:	0800683a 	jmp	at
	...

Disassembly of section .exceptions:

08000020 <alt_exception>:

#else /* ALT_EXCEPTION_STACK disabled */
        /* 
         * Reserve space on normal stack for registers about to be pushed.
         */
        addi  sp, sp, -76
 8000020:	deffed04 	addi	sp,sp,-76
         * documentation for details).
         *
         * Leave a gap in the stack frame at 4(sp) for the muldiv handler to
         * store zero into.
         */
        stw   ra,  0(sp)
 8000024:	dfc00015 	stw	ra,0(sp)
        stw   r1,   8(sp)
 8000028:	d8400215 	stw	at,8(sp)
        stw   r2,  12(sp)
 800002c:	d8800315 	stw	r2,12(sp)
        stw   r3,  16(sp)
 8000030:	d8c00415 	stw	r3,16(sp)
        stw   r4,  20(sp)
 8000034:	d9000515 	stw	r4,20(sp)
        stw   r5,  24(sp)
 8000038:	d9400615 	stw	r5,24(sp)
        stw   r6,  28(sp)
 800003c:	d9800715 	stw	r6,28(sp)
        stw   r7,  32(sp)
 8000040:	d9c00815 	stw	r7,32(sp)
        rdctl r5, estatus   /* Read early to avoid usage stall */
 8000044:	000b307a 	rdctl	r5,estatus
        stw   r8,  36(sp)
 8000048:	da000915 	stw	r8,36(sp)
        stw   r9,  40(sp)
 800004c:	da400a15 	stw	r9,40(sp)
        stw   r10, 44(sp)
 8000050:	da800b15 	stw	r10,44(sp)
        stw   r11, 48(sp)
 8000054:	dac00c15 	stw	r11,48(sp)
        stw   r12, 52(sp)
 8000058:	db000d15 	stw	r12,52(sp)
        stw   r13, 56(sp)
 800005c:	db400e15 	stw	r13,56(sp)
        stw   r14, 60(sp)
 8000060:	db800f15 	stw	r14,60(sp)
        stw   r15, 64(sp)
 8000064:	dbc01015 	stw	r15,64(sp)
        /*
         * ea-4 contains the address of the instruction being executed
         * when the exception occured. For interrupt exceptions, we will
         * will be re-issue the isntruction. Store it in 72(sp)
         */
        stw   r5,  68(sp)  /* estatus */
 8000068:	d9401115 	stw	r5,68(sp)
        addi  r15, ea, -4  /* instruction that caused exception */
 800006c:	ebffff04 	addi	r15,ea,-4
        stw   r15,  72(sp)
 8000070:	dbc01215 	stw	r15,72(sp)
#else
        /*
         * Test to see if the exception was a software exception or caused 
         * by an external interrupt, and vector accordingly.
         */
        rdctl r4, ipending
 8000074:	0009313a 	rdctl	r4,ipending
        andi  r2, r5, 1
 8000078:	2880004c 	andi	r2,r5,1
        beq   r2, zero, .Lnot_irq
 800007c:	10000326 	beq	r2,zero,800008c <alt_exception+0x6c>
        beq   r4, zero, .Lnot_irq
 8000080:	20000226 	beq	r4,zero,800008c <alt_exception+0x6c>
        /*
         * Now that all necessary registers have been preserved, call 
         * alt_irq_handler() to process the interrupts.
         */

        call alt_irq_handler
 8000084:	80000fc0 	call	80000fc <alt_irq_handler>

        .section .exceptions.irqreturn, "xa"

        br    .Lexception_exit
 8000088:	00000706 	br	80000a8 <alt_exception+0x88>
         * upon completion, so we write ea (address of instruction *after*
         * the one where the exception occured) into 72(sp). The actual
         * instruction that caused the exception is written in r2, which these
         * handlers will utilize.
         */
        stw ea, 72(sp) /* EA is PC+4 so will skip over instruction causing exception */
 800008c:	df401215 	stw	ea,72(sp)
.Lunknown_16bit:
        addi.n r4, r4, 2 /* Need PC+2 to skip over instruction causing exception */
        stw r4, 72(sp)

#else /* CDX is not Enabled and all instructions are 32bits */
        ldw r2, -4(ea) /* Instruction value that caused exception */
 8000090:	e8bfff17 	ldw	r2,-4(ea)
         * debugger is present) or go into an infinite loop since the
         * handling behavior is undefined; in that case we will not return here.
         */

        /* Load exception-causing address as first argument (r4) */
        addi   r4, ea, -4
 8000094:	e93fff04 	addi	r4,ea,-4

        /* Call the instruction-exception entry */
        call   alt_instruction_exception_entry
 8000098:	80001d00 	call	80001d0 <alt_instruction_exception_entry>
         * instruction
         *
         * Return code was 0: Skip. The instruction after the exception is
         * already stored in 72(sp).
         */
        bne   r2, r0, .Lexception_exit
 800009c:	1000021e 	bne	r2,zero,80000a8 <alt_exception+0x88>

        /*
         * Otherwise, modify 72(sp) to re-issue the instruction that caused the
         * exception.
         */
        addi  r15, ea, -4  /* instruction that caused exception */
 80000a0:	ebffff04 	addi	r15,ea,-4
        stw   r15,  72(sp)
 80000a4:	dbc01215 	stw	r15,72(sp)
        /* 
         * Restore the saved registers, so that all general purpose registers 
         * have been restored to their state at the time the interrupt occured.
         */

        ldw   r5,  68(sp)
 80000a8:	d9401117 	ldw	r5,68(sp)
        ldw   ea,  72(sp)  /* This becomes the PC once eret is executed */
 80000ac:	df401217 	ldw	ea,72(sp)
        ldw   ra,   0(sp)
 80000b0:	dfc00017 	ldw	ra,0(sp)

        wrctl estatus, r5
 80000b4:	2801707a 	wrctl	estatus,r5

        ldw   r1,   8(sp)
 80000b8:	d8400217 	ldw	at,8(sp)
        ldw   r2,  12(sp)
 80000bc:	d8800317 	ldw	r2,12(sp)
        ldw   r3,  16(sp)
 80000c0:	d8c00417 	ldw	r3,16(sp)
        ldw   r4,  20(sp)
 80000c4:	d9000517 	ldw	r4,20(sp)
        ldw   r5,  24(sp)
 80000c8:	d9400617 	ldw	r5,24(sp)
        ldw   r6,  28(sp)
 80000cc:	d9800717 	ldw	r6,28(sp)
        ldw   r7,  32(sp)
 80000d0:	d9c00817 	ldw	r7,32(sp)

#if defined(ALT_EXCEPTION_STACK) && defined(ALT_STACK_CHECK)
        ldw   et, %gprel(alt_exception_old_stack_limit)(gp)
#endif

        ldw   r8,  36(sp)
 80000d4:	da000917 	ldw	r8,36(sp)
        ldw   r9,  40(sp)
 80000d8:	da400a17 	ldw	r9,40(sp)
        ldw   r10, 44(sp)
 80000dc:	da800b17 	ldw	r10,44(sp)
        ldw   r11, 48(sp)
 80000e0:	dac00c17 	ldw	r11,48(sp)
        ldw   r12, 52(sp)
 80000e4:	db000d17 	ldw	r12,52(sp)
        ldw   r13, 56(sp)
 80000e8:	db400e17 	ldw	r13,56(sp)
        ldw   r14, 60(sp)
 80000ec:	db800f17 	ldw	r14,60(sp)
        ldw   r15, 64(sp)
 80000f0:	dbc01017 	ldw	r15,64(sp)
        stw   et, %gprel(alt_stack_limit_value)(gp)
        stw   zero, %gprel(alt_exception_old_stack_limit)(gp)
#endif /* ALT_STACK_CHECK */
        ldw   sp,  76(sp)
#else /* ALT_EXCEPTION_STACK disabled */
        addi  sp, sp, 76
 80000f4:	dec01304 	addi	sp,sp,76

        /*
         * Return to the interrupted instruction.
         */

        eret
 80000f8:	ef80083a 	eret

080000fc <alt_irq_handler>:
 * instruction is present if the macro ALT_CI_INTERRUPT_VECTOR defined.
 */

void alt_irq_handler (void) __attribute__ ((section (".exceptions")));
void alt_irq_handler (void)
{
 80000fc:	defff904 	addi	sp,sp,-28
 8000100:	dfc00615 	stw	ra,24(sp)
 8000104:	df000515 	stw	fp,20(sp)
 8000108:	df000504 	addi	fp,sp,20
  
  /*
   * Notify the operating system that we are at interrupt level.
   */ 
  
  ALT_OS_INT_ENTER();
 800010c:	0001883a 	nop
#ifndef NIOS2_EIC_PRESENT
static ALT_INLINE alt_u32 ALT_ALWAYS_INLINE alt_irq_pending (void)
{
  alt_u32 active;

  NIOS2_READ_IPENDING (active);
 8000110:	0005313a 	rdctl	r2,ipending
 8000114:	e0bffe15 	stw	r2,-8(fp)

  return active;
 8000118:	e0bffe17 	ldw	r2,-8(fp)
   * Consider the case where the high priority interupt is asserted during
   * the interrupt entry sequence for a lower priority interrupt to see why
   * this is the case.
   */

  active = alt_irq_pending ();
 800011c:	e0bffb15 	stw	r2,-20(fp)

  do
  {
    i = 0;
 8000120:	e03ffd15 	stw	zero,-12(fp)
    mask = 1;
 8000124:	00800044 	movi	r2,1
 8000128:	e0bffc15 	stw	r2,-16(fp)
     * called to clear the interrupt condition.
     */

    do
    {
      if (active & mask)
 800012c:	e0fffb17 	ldw	r3,-20(fp)
 8000130:	e0bffc17 	ldw	r2,-16(fp)
 8000134:	1884703a 	and	r2,r3,r2
 8000138:	10001426 	beq	r2,zero,800018c <alt_irq_handler+0x90>
      { 
#ifdef ALT_ENHANCED_INTERRUPT_API_PRESENT
        alt_irq[i].handler(alt_irq[i].context); 
 800013c:	008200b4 	movhi	r2,2050
 8000140:	10a1dc04 	addi	r2,r2,-30864
 8000144:	e0fffd17 	ldw	r3,-12(fp)
 8000148:	180690fa 	slli	r3,r3,3
 800014c:	10c5883a 	add	r2,r2,r3
 8000150:	10c00017 	ldw	r3,0(r2)
 8000154:	008200b4 	movhi	r2,2050
 8000158:	10a1dc04 	addi	r2,r2,-30864
 800015c:	e13ffd17 	ldw	r4,-12(fp)
 8000160:	200890fa 	slli	r4,r4,3
 8000164:	1105883a 	add	r2,r2,r4
 8000168:	10800104 	addi	r2,r2,4
 800016c:	10800017 	ldw	r2,0(r2)
 8000170:	1009883a 	mov	r4,r2
 8000174:	183ee83a 	callr	r3
#else
        alt_irq[i].handler(alt_irq[i].context, i); 
#endif
        break;
 8000178:	0001883a 	nop
#ifndef NIOS2_EIC_PRESENT
static ALT_INLINE alt_u32 ALT_ALWAYS_INLINE alt_irq_pending (void)
{
  alt_u32 active;

  NIOS2_READ_IPENDING (active);
 800017c:	0005313a 	rdctl	r2,ipending
 8000180:	e0bfff15 	stw	r2,-4(fp)

  return active;
 8000184:	e0bfff17 	ldw	r2,-4(fp)
 8000188:	00000706 	br	80001a8 <alt_irq_handler+0xac>
      }
      mask <<= 1;
 800018c:	e0bffc17 	ldw	r2,-16(fp)
 8000190:	1085883a 	add	r2,r2,r2
 8000194:	e0bffc15 	stw	r2,-16(fp)
      i++;
 8000198:	e0bffd17 	ldw	r2,-12(fp)
 800019c:	10800044 	addi	r2,r2,1
 80001a0:	e0bffd15 	stw	r2,-12(fp)

    } while (1);
 80001a4:	003fe106 	br	800012c <__alt_data_end+0xfc00012c>

    active = alt_irq_pending ();
 80001a8:	e0bffb15 	stw	r2,-20(fp)
    
  } while (active);
 80001ac:	e0bffb17 	ldw	r2,-20(fp)
 80001b0:	103fdb1e 	bne	r2,zero,8000120 <__alt_data_end+0xfc000120>

  /*
   * Notify the operating system that interrupt processing is complete.
   */ 

  ALT_OS_INT_EXIT();
 80001b4:	0001883a 	nop
}
 80001b8:	0001883a 	nop
 80001bc:	e037883a 	mov	sp,fp
 80001c0:	dfc00117 	ldw	ra,4(sp)
 80001c4:	df000017 	ldw	fp,0(sp)
 80001c8:	dec00204 	addi	sp,sp,8
 80001cc:	f800283a 	ret

080001d0 <alt_instruction_exception_entry>:
 * that handler if it has been registered. Absent a handler, it will
 * break break or hang as discussed below.
 */
int 
alt_instruction_exception_entry (alt_u32 exception_pc)
{
 80001d0:	defffb04 	addi	sp,sp,-20
 80001d4:	dfc00415 	stw	ra,16(sp)
 80001d8:	df000315 	stw	fp,12(sp)
 80001dc:	df000304 	addi	fp,sp,12
 80001e0:	e13fff15 	stw	r4,-4(fp)
  cause = ( (cause & NIOS2_EXCEPTION_REG_CAUSE_MASK) >>
              NIOS2_EXCEPTION_REG_CAUSE_OFST );

  NIOS2_READ_BADADDR(badaddr);
#else
  cause = NIOS2_EXCEPTION_CAUSE_NOT_PRESENT;
 80001e4:	00bfffc4 	movi	r2,-1
 80001e8:	e0bffd15 	stw	r2,-12(fp)
  badaddr = 0;
 80001ec:	e03ffe15 	stw	zero,-8(fp)
#endif /* NIOS2_HAS_EXTRA_EXCEPTION_INFO */

  if(alt_instruction_exception_handler) {
 80001f0:	d0a70417 	ldw	r2,-25584(gp)
 80001f4:	10000726 	beq	r2,zero,8000214 <alt_instruction_exception_entry+0x44>
     * Call handler. Its return value indicates whether the exception-causing
     * instruction should be re-issued. The code that called us,
     * alt_eceptions_entry.S, will look at this value and adjust the ea
     * register as necessary
     */
    return alt_instruction_exception_handler(cause, exception_pc, badaddr);
 80001f8:	d0a70417 	ldw	r2,-25584(gp)
 80001fc:	e0fffd17 	ldw	r3,-12(fp)
 8000200:	e1bffe17 	ldw	r6,-8(fp)
 8000204:	e17fff17 	ldw	r5,-4(fp)
 8000208:	1809883a 	mov	r4,r3
 800020c:	103ee83a 	callr	r2
 8000210:	00000206 	br	800021c <alt_instruction_exception_entry+0x4c>
   *    (a peripheral which negates its interrupt output before its
   *    interrupt handler has been executed will cause spurious interrupts)
   */
  else {
#ifdef NIOS2_HAS_DEBUG_STUB
    NIOS2_BREAK();
 8000214:	003da03a 	break	0
      ;
#endif /* NIOS2_HAS_DEBUG_STUB */
  }

  /* We should not get here. Remove compiler warning. */
  return NIOS2_EXCEPTION_RETURN_REISSUE_INST;
 8000218:	0005883a 	mov	r2,zero
}
 800021c:	e037883a 	mov	sp,fp
 8000220:	dfc00117 	ldw	ra,4(sp)
 8000224:	df000017 	ldw	fp,0(sp)
 8000228:	dec00204 	addi	sp,sp,8
 800022c:	f800283a 	ret

Disassembly of section .text:

08000230 <_start>:

    /*
     * Now that the caches are initialized, set up the stack pointer and global pointer.
     * The values provided by the linker are assumed to be correctly aligned.
     */
    movhi sp, %hi(__alt_stack_pointer)
 8000230:	06c30034 	movhi	sp,3072
    ori sp, sp, %lo(__alt_stack_pointer)
 8000234:	dec00014 	ori	sp,sp,0
    movhi gp, %hi(_gp)
 8000238:	06820074 	movhi	gp,2049
    ori gp, gp, %lo(_gp)
 800023c:	d6ba7114 	ori	gp,gp,59844
 */
#ifndef ALT_SIM_OPTIMIZE
    /* Log that the BSS is about to be cleared. */
    ALT_LOG_PUTS(alt_log_msg_bss)

    movhi r2, %hi(__bss_start)
 8000240:	00820074 	movhi	r2,2049
    ori r2, r2, %lo(__bss_start)
 8000244:	10a15e14 	ori	r2,r2,34168

    movhi r3, %hi(__bss_end)
 8000248:	00c20074 	movhi	r3,2049
    ori r3, r3, %lo(__bss_end)
 800024c:	18e21c14 	ori	r3,r3,34928

    beq r2, r3, 1f
 8000250:	10c00326 	beq	r2,r3,8000260 <_start+0x30>

0:
    stw zero, (r2)
 8000254:	10000015 	stw	zero,0(r2)
    addi r2, r2, 4
 8000258:	10800104 	addi	r2,r2,4
    bltu r2, r3, 0b
 800025c:	10fffd36 	bltu	r2,r3,8000254 <__alt_data_end+0xfc000254>
     * section aren't defined until alt_load() has been called).
     */
    mov   et, zero
#endif

    call alt_load
 8000260:	80121400 	call	8012140 <alt_load>

    /* Log that alt_main is about to be called. */
    ALT_LOG_PUTS(alt_log_msg_alt_main)

    /* Call the C entry point. It should never return. */
    call alt_main
 8000264:	80122dc0 	call	80122dc <alt_main>

08000268 <alt_after_alt_main>:

    /* Wait in infinite loop in case alt_main does return. */
alt_after_alt_main:
    br alt_after_alt_main
 8000268:	003fff06 	br	8000268 <__alt_data_end+0xfc000268>

0800026c <GetDriverandReport>:
extern HID_DEVICE hid_device;

static BYTE addr = 1; 				//hard-wired USB address
const char* const devclasses[] = { " Uninitialized", " HID Keyboard", " HID Mouse", " Mass storage" };

BYTE GetDriverandReport() {
 800026c:	defff604 	addi	sp,sp,-40
 8000270:	dfc00915 	stw	ra,36(sp)
 8000274:	df000815 	stw	fp,32(sp)
 8000278:	df000804 	addi	fp,sp,32
	BYTE i;
	BYTE rcode;
	BYTE device = 0xFF;
 800027c:	00bfffc4 	movi	r2,-1
 8000280:	e0bffd45 	stb	r2,-11(fp)
	BYTE tmpbyte;

	DEV_RECORD* tpl_ptr;
	printf("Reached USB_STATE_RUNNING (0x40)\n");
 8000284:	01020074 	movhi	r4,2049
 8000288:	21124c04 	addi	r4,r4,18736
 800028c:	80056700 	call	8005670 <puts>
	for (i = 1; i < USB_NUMDEVICES; i++) {
 8000290:	00800044 	movi	r2,1
 8000294:	e0bffd05 	stb	r2,-12(fp)
 8000298:	00001f06 	br	8000318 <GetDriverandReport+0xac>
		tpl_ptr = GetDevtable(i);
 800029c:	e0bffd03 	ldbu	r2,-12(fp)
 80002a0:	1009883a 	mov	r4,r2
 80002a4:	80047e80 	call	80047e8 <GetDevtable>
 80002a8:	e0bffe15 	stw	r2,-8(fp)
		if (tpl_ptr->epinfo != NULL) {
 80002ac:	e0bffe17 	ldw	r2,-8(fp)
 80002b0:	10800017 	ldw	r2,0(r2)
 80002b4:	10001526 	beq	r2,zero,800030c <GetDriverandReport+0xa0>
			printf("Device: %d", i);
 80002b8:	e0bffd03 	ldbu	r2,-12(fp)
 80002bc:	100b883a 	mov	r5,r2
 80002c0:	01020074 	movhi	r4,2049
 80002c4:	21125504 	addi	r4,r4,18772
 80002c8:	80055540 	call	8005554 <printf>
			printf("%s \n", devclasses[tpl_ptr->devclass]);
 80002cc:	e0bffe17 	ldw	r2,-8(fp)
 80002d0:	10800103 	ldbu	r2,4(r2)
 80002d4:	10c03fcc 	andi	r3,r2,255
 80002d8:	00820074 	movhi	r2,2049
 80002dc:	10924804 	addi	r2,r2,18720
 80002e0:	18c7883a 	add	r3,r3,r3
 80002e4:	18c7883a 	add	r3,r3,r3
 80002e8:	10c5883a 	add	r2,r2,r3
 80002ec:	10800017 	ldw	r2,0(r2)
 80002f0:	100b883a 	mov	r5,r2
 80002f4:	01020074 	movhi	r4,2049
 80002f8:	21125804 	addi	r4,r4,18784
 80002fc:	80055540 	call	8005554 <printf>
			device = tpl_ptr->devclass;
 8000300:	e0bffe17 	ldw	r2,-8(fp)
 8000304:	10800103 	ldbu	r2,4(r2)
 8000308:	e0bffd45 	stb	r2,-11(fp)
	BYTE device = 0xFF;
	BYTE tmpbyte;

	DEV_RECORD* tpl_ptr;
	printf("Reached USB_STATE_RUNNING (0x40)\n");
	for (i = 1; i < USB_NUMDEVICES; i++) {
 800030c:	e0bffd03 	ldbu	r2,-12(fp)
 8000310:	10800044 	addi	r2,r2,1
 8000314:	e0bffd05 	stb	r2,-12(fp)
 8000318:	e0bffd03 	ldbu	r2,-12(fp)
 800031c:	10800230 	cmpltui	r2,r2,8
 8000320:	103fde1e 	bne	r2,zero,800029c <__alt_data_end+0xfc00029c>
			printf("%s \n", devclasses[tpl_ptr->devclass]);
			device = tpl_ptr->devclass;
		}
	}
	//Query rate and protocol
	rcode = XferGetIdle(addr, 0, hid_device.interface, 0, &tmpbyte);
 8000324:	d0a00003 	ldbu	r2,-32768(gp)
 8000328:	11003fcc 	andi	r4,r2,255
 800032c:	d0a6ed43 	ldbu	r2,-25675(gp)
 8000330:	10803fcc 	andi	r2,r2,255
 8000334:	e0ffff44 	addi	r3,fp,-3
 8000338:	d8c00415 	stw	r3,16(sp)
 800033c:	00c00044 	movi	r3,1
 8000340:	d8c00315 	stw	r3,12(sp)
 8000344:	d8800215 	stw	r2,8(sp)
 8000348:	d8000115 	stw	zero,4(sp)
 800034c:	d8000015 	stw	zero,0(sp)
 8000350:	01c00084 	movi	r7,2
 8000354:	01802844 	movi	r6,161
 8000358:	000b883a 	mov	r5,zero
 800035c:	8003a0c0 	call	8003a0c <XferCtrlReq>
 8000360:	e0bfff05 	stb	r2,-4(fp)
	if (rcode) {   //error handling
 8000364:	e0bfff03 	ldbu	r2,-4(fp)
 8000368:	10000926 	beq	r2,zero,8000390 <GetDriverandReport+0x124>
		printf("GetIdle Error. Error code: ");
 800036c:	01020074 	movhi	r4,2049
 8000370:	21125a04 	addi	r4,r4,18792
 8000374:	80055540 	call	8005554 <printf>
		printf("%x \n", rcode);
 8000378:	e0bfff03 	ldbu	r2,-4(fp)
 800037c:	100b883a 	mov	r5,r2
 8000380:	01020074 	movhi	r4,2049
 8000384:	21126104 	addi	r4,r4,18820
 8000388:	80055540 	call	8005554 <printf>
 800038c:	00000906 	br	80003b4 <GetDriverandReport+0x148>
	} else {
		printf("Update rate: ");
 8000390:	01020074 	movhi	r4,2049
 8000394:	21126304 	addi	r4,r4,18828
 8000398:	80055540 	call	8005554 <printf>
		printf("%x \n", tmpbyte);
 800039c:	e0bfff43 	ldbu	r2,-3(fp)
 80003a0:	10803fcc 	andi	r2,r2,255
 80003a4:	100b883a 	mov	r5,r2
 80003a8:	01020074 	movhi	r4,2049
 80003ac:	21126104 	addi	r4,r4,18820
 80003b0:	80055540 	call	8005554 <printf>
	}
	printf("Protocol: ");
 80003b4:	01020074 	movhi	r4,2049
 80003b8:	21126704 	addi	r4,r4,18844
 80003bc:	80055540 	call	8005554 <printf>
	rcode = XferGetProto(addr, 0, hid_device.interface, &tmpbyte);
 80003c0:	d0a00003 	ldbu	r2,-32768(gp)
 80003c4:	11003fcc 	andi	r4,r2,255
 80003c8:	d0a6ed43 	ldbu	r2,-25675(gp)
 80003cc:	10803fcc 	andi	r2,r2,255
 80003d0:	e0ffff44 	addi	r3,fp,-3
 80003d4:	d8c00415 	stw	r3,16(sp)
 80003d8:	00c00044 	movi	r3,1
 80003dc:	d8c00315 	stw	r3,12(sp)
 80003e0:	d8800215 	stw	r2,8(sp)
 80003e4:	d8000115 	stw	zero,4(sp)
 80003e8:	d8000015 	stw	zero,0(sp)
 80003ec:	01c000c4 	movi	r7,3
 80003f0:	01802844 	movi	r6,161
 80003f4:	000b883a 	mov	r5,zero
 80003f8:	8003a0c0 	call	8003a0c <XferCtrlReq>
 80003fc:	e0bfff05 	stb	r2,-4(fp)
	if (rcode) {   //error handling
 8000400:	e0bfff03 	ldbu	r2,-4(fp)
 8000404:	10000926 	beq	r2,zero,800042c <GetDriverandReport+0x1c0>
		printf("GetProto Error. Error code ");
 8000408:	01020074 	movhi	r4,2049
 800040c:	21126a04 	addi	r4,r4,18856
 8000410:	80055540 	call	8005554 <printf>
		printf("%x \n", rcode);
 8000414:	e0bfff03 	ldbu	r2,-4(fp)
 8000418:	100b883a 	mov	r5,r2
 800041c:	01020074 	movhi	r4,2049
 8000420:	21126104 	addi	r4,r4,18820
 8000424:	80055540 	call	8005554 <printf>
 8000428:	00000606 	br	8000444 <GetDriverandReport+0x1d8>
	} else {
		printf("%d \n", tmpbyte);
 800042c:	e0bfff43 	ldbu	r2,-3(fp)
 8000430:	10803fcc 	andi	r2,r2,255
 8000434:	100b883a 	mov	r5,r2
 8000438:	01020074 	movhi	r4,2049
 800043c:	21127104 	addi	r4,r4,18884
 8000440:	80055540 	call	8005554 <printf>
	}
	return device;
 8000444:	e0bffd43 	ldbu	r2,-11(fp)
}
 8000448:	e037883a 	mov	sp,fp
 800044c:	dfc00117 	ldw	ra,4(sp)
 8000450:	df000017 	ldw	fp,0(sp)
 8000454:	dec00204 	addi	sp,sp,8
 8000458:	f800283a 	ret

0800045c <setLED>:

void setLED(int LED) {
 800045c:	defffe04 	addi	sp,sp,-8
 8000460:	df000115 	stw	fp,4(sp)
 8000464:	df000104 	addi	fp,sp,4
 8000468:	e13fff15 	stw	r4,-4(fp)
	IOWR_ALTERA_AVALON_PIO_DATA(LEDS_PIO_BASE,
 800046c:	00802c04 	movi	r2,176
 8000470:	10c00037 	ldwio	r3,0(r2)
 8000474:	01000044 	movi	r4,1
 8000478:	e0bfff17 	ldw	r2,-4(fp)
 800047c:	2084983a 	sll	r2,r4,r2
 8000480:	1886b03a 	or	r3,r3,r2
 8000484:	00802c04 	movi	r2,176
 8000488:	10c00035 	stwio	r3,0(r2)
			(IORD_ALTERA_AVALON_PIO_DATA(LEDS_PIO_BASE) | (0x001 << LED)));
}
 800048c:	0001883a 	nop
 8000490:	e037883a 	mov	sp,fp
 8000494:	df000017 	ldw	fp,0(sp)
 8000498:	dec00104 	addi	sp,sp,4
 800049c:	f800283a 	ret

080004a0 <clearLED>:

void clearLED(int LED) {
 80004a0:	defffe04 	addi	sp,sp,-8
 80004a4:	df000115 	stw	fp,4(sp)
 80004a8:	df000104 	addi	fp,sp,4
 80004ac:	e13fff15 	stw	r4,-4(fp)
	IOWR_ALTERA_AVALON_PIO_DATA(LEDS_PIO_BASE,
 80004b0:	00802c04 	movi	r2,176
 80004b4:	10c00037 	ldwio	r3,0(r2)
 80004b8:	01000044 	movi	r4,1
 80004bc:	e0bfff17 	ldw	r2,-4(fp)
 80004c0:	2084983a 	sll	r2,r4,r2
 80004c4:	0084303a 	nor	r2,zero,r2
 80004c8:	1886703a 	and	r3,r3,r2
 80004cc:	00802c04 	movi	r2,176
 80004d0:	10c00035 	stwio	r3,0(r2)
			(IORD_ALTERA_AVALON_PIO_DATA(LEDS_PIO_BASE) & ~(0x001 << LED)));

}
 80004d4:	0001883a 	nop
 80004d8:	e037883a 	mov	sp,fp
 80004dc:	df000017 	ldw	fp,0(sp)
 80004e0:	dec00104 	addi	sp,sp,4
 80004e4:	f800283a 	ret

080004e8 <printSignedHex0>:

void printSignedHex0(signed char value) {
 80004e8:	defffc04 	addi	sp,sp,-16
 80004ec:	dfc00315 	stw	ra,12(sp)
 80004f0:	df000215 	stw	fp,8(sp)
 80004f4:	df000204 	addi	fp,sp,8
 80004f8:	2005883a 	mov	r2,r4
 80004fc:	e0bfff05 	stb	r2,-4(fp)
	BYTE tens = 0;
 8000500:	e03ffe05 	stb	zero,-8(fp)
	BYTE ones = 0;
 8000504:	e03ffe45 	stb	zero,-7(fp)
	WORD pio_val = IORD_ALTERA_AVALON_PIO_DATA(HEX_DIGITS_PIO_BASE);
 8000508:	00803004 	movi	r2,192
 800050c:	10800037 	ldwio	r2,0(r2)
 8000510:	e0bffe8d 	sth	r2,-6(fp)
	if (value < 0) {
 8000514:	e0bfff07 	ldb	r2,-4(fp)
 8000518:	1000060e 	bge	r2,zero,8000534 <printSignedHex0+0x4c>
		setLED(11);
 800051c:	010002c4 	movi	r4,11
 8000520:	800045c0 	call	800045c <setLED>
		value = -value;
 8000524:	e0bfff03 	ldbu	r2,-4(fp)
 8000528:	0085c83a 	sub	r2,zero,r2
 800052c:	e0bfff05 	stb	r2,-4(fp)
 8000530:	00000206 	br	800053c <printSignedHex0+0x54>
	} else {
		clearLED(11);
 8000534:	010002c4 	movi	r4,11
 8000538:	80004a00 	call	80004a0 <clearLED>
	}
	//handled hundreds
	if (value / 100)
 800053c:	e0bfff03 	ldbu	r2,-4(fp)
 8000540:	108018c4 	addi	r2,r2,99
 8000544:	10803fcc 	andi	r2,r2,255
 8000548:	108031f0 	cmpltui	r2,r2,199
 800054c:	1000031e 	bne	r2,zero,800055c <printSignedHex0+0x74>
		setLED(13);
 8000550:	01000344 	movi	r4,13
 8000554:	800045c0 	call	800045c <setLED>
 8000558:	00000206 	br	8000564 <printSignedHex0+0x7c>
	else
		clearLED(13);
 800055c:	01000344 	movi	r4,13
 8000560:	80004a00 	call	80004a0 <clearLED>

	value = value % 100;
 8000564:	e0bfff07 	ldb	r2,-4(fp)
 8000568:	01401904 	movi	r5,100
 800056c:	1009883a 	mov	r4,r2
 8000570:	80049280 	call	8004928 <__modsi3>
 8000574:	e0bfff05 	stb	r2,-4(fp)
	tens = value / 10;
 8000578:	e0bfff07 	ldb	r2,-4(fp)
 800057c:	01400284 	movi	r5,10
 8000580:	1009883a 	mov	r4,r2
 8000584:	80048a40 	call	80048a4 <__divsi3>
 8000588:	e0bffe05 	stb	r2,-8(fp)
	ones = value % 10;
 800058c:	e0bfff07 	ldb	r2,-4(fp)
 8000590:	01400284 	movi	r5,10
 8000594:	1009883a 	mov	r4,r2
 8000598:	80049280 	call	8004928 <__modsi3>
 800059c:	e0bffe45 	stb	r2,-7(fp)

	pio_val &= 0x00FF;
 80005a0:	e0bffe8b 	ldhu	r2,-6(fp)
 80005a4:	10803fcc 	andi	r2,r2,255
 80005a8:	e0bffe8d 	sth	r2,-6(fp)
	pio_val |= (tens << 12);
 80005ac:	e0bffe03 	ldbu	r2,-8(fp)
 80005b0:	1004933a 	slli	r2,r2,12
 80005b4:	1007883a 	mov	r3,r2
 80005b8:	e0bffe8b 	ldhu	r2,-6(fp)
 80005bc:	1884b03a 	or	r2,r3,r2
 80005c0:	e0bffe8d 	sth	r2,-6(fp)
	pio_val |= (ones << 8);
 80005c4:	e0bffe43 	ldbu	r2,-7(fp)
 80005c8:	1004923a 	slli	r2,r2,8
 80005cc:	1007883a 	mov	r3,r2
 80005d0:	e0bffe8b 	ldhu	r2,-6(fp)
 80005d4:	1884b03a 	or	r2,r3,r2
 80005d8:	e0bffe8d 	sth	r2,-6(fp)

	IOWR_ALTERA_AVALON_PIO_DATA(HEX_DIGITS_PIO_BASE, pio_val);
 80005dc:	e0fffe8b 	ldhu	r3,-6(fp)
 80005e0:	00803004 	movi	r2,192
 80005e4:	10c00035 	stwio	r3,0(r2)
}
 80005e8:	0001883a 	nop
 80005ec:	e037883a 	mov	sp,fp
 80005f0:	dfc00117 	ldw	ra,4(sp)
 80005f4:	df000017 	ldw	fp,0(sp)
 80005f8:	dec00204 	addi	sp,sp,8
 80005fc:	f800283a 	ret

08000600 <printSignedHex1>:

void printSignedHex1(signed char value) {
 8000600:	defffb04 	addi	sp,sp,-20
 8000604:	dfc00415 	stw	ra,16(sp)
 8000608:	df000315 	stw	fp,12(sp)
 800060c:	df000304 	addi	fp,sp,12
 8000610:	2005883a 	mov	r2,r4
 8000614:	e0bfff05 	stb	r2,-4(fp)
	BYTE tens = 0;
 8000618:	e03ffd05 	stb	zero,-12(fp)
	BYTE ones = 0;
 800061c:	e03ffd45 	stb	zero,-11(fp)
	DWORD pio_val = IORD_ALTERA_AVALON_PIO_DATA(HEX_DIGITS_PIO_BASE);
 8000620:	00803004 	movi	r2,192
 8000624:	10800037 	ldwio	r2,0(r2)
 8000628:	e0bffe15 	stw	r2,-8(fp)
	if (value < 0) {
 800062c:	e0bfff07 	ldb	r2,-4(fp)
 8000630:	1000060e 	bge	r2,zero,800064c <printSignedHex1+0x4c>
		setLED(10);
 8000634:	01000284 	movi	r4,10
 8000638:	800045c0 	call	800045c <setLED>
		value = -value;
 800063c:	e0bfff03 	ldbu	r2,-4(fp)
 8000640:	0085c83a 	sub	r2,zero,r2
 8000644:	e0bfff05 	stb	r2,-4(fp)
 8000648:	00000206 	br	8000654 <printSignedHex1+0x54>
	} else {
		clearLED(10);
 800064c:	01000284 	movi	r4,10
 8000650:	80004a00 	call	80004a0 <clearLED>
	}
	//handled hundreds
	if (value / 100)
 8000654:	e0bfff03 	ldbu	r2,-4(fp)
 8000658:	108018c4 	addi	r2,r2,99
 800065c:	10803fcc 	andi	r2,r2,255
 8000660:	108031f0 	cmpltui	r2,r2,199
 8000664:	1000031e 	bne	r2,zero,8000674 <printSignedHex1+0x74>
		setLED(12);
 8000668:	01000304 	movi	r4,12
 800066c:	800045c0 	call	800045c <setLED>
 8000670:	00000206 	br	800067c <printSignedHex1+0x7c>
	else
		clearLED(12);
 8000674:	01000304 	movi	r4,12
 8000678:	80004a00 	call	80004a0 <clearLED>

	value = value % 100;
 800067c:	e0bfff07 	ldb	r2,-4(fp)
 8000680:	01401904 	movi	r5,100
 8000684:	1009883a 	mov	r4,r2
 8000688:	80049280 	call	8004928 <__modsi3>
 800068c:	e0bfff05 	stb	r2,-4(fp)
	tens = value / 10;
 8000690:	e0bfff07 	ldb	r2,-4(fp)
 8000694:	01400284 	movi	r5,10
 8000698:	1009883a 	mov	r4,r2
 800069c:	80048a40 	call	80048a4 <__divsi3>
 80006a0:	e0bffd05 	stb	r2,-12(fp)
	ones = value % 10;
 80006a4:	e0bfff07 	ldb	r2,-4(fp)
 80006a8:	01400284 	movi	r5,10
 80006ac:	1009883a 	mov	r4,r2
 80006b0:	80049280 	call	8004928 <__modsi3>
 80006b4:	e0bffd45 	stb	r2,-11(fp)
	tens = value / 10;
 80006b8:	e0bfff07 	ldb	r2,-4(fp)
 80006bc:	01400284 	movi	r5,10
 80006c0:	1009883a 	mov	r4,r2
 80006c4:	80048a40 	call	80048a4 <__divsi3>
 80006c8:	e0bffd05 	stb	r2,-12(fp)
	ones = value % 10;
 80006cc:	e0bfff07 	ldb	r2,-4(fp)
 80006d0:	01400284 	movi	r5,10
 80006d4:	1009883a 	mov	r4,r2
 80006d8:	80049280 	call	8004928 <__modsi3>
 80006dc:	e0bffd45 	stb	r2,-11(fp)

	pio_val &= 0xFF00;
 80006e0:	e0bffe17 	ldw	r2,-8(fp)
 80006e4:	10bfc00c 	andi	r2,r2,65280
 80006e8:	e0bffe15 	stw	r2,-8(fp)
	pio_val |= (tens << 4);
 80006ec:	e0bffd03 	ldbu	r2,-12(fp)
 80006f0:	1004913a 	slli	r2,r2,4
 80006f4:	1007883a 	mov	r3,r2
 80006f8:	e0bffe17 	ldw	r2,-8(fp)
 80006fc:	10c4b03a 	or	r2,r2,r3
 8000700:	e0bffe15 	stw	r2,-8(fp)
	pio_val |= (ones << 0);
 8000704:	e0bffd43 	ldbu	r2,-11(fp)
 8000708:	e0fffe17 	ldw	r3,-8(fp)
 800070c:	1884b03a 	or	r2,r3,r2
 8000710:	e0bffe15 	stw	r2,-8(fp)

	IOWR_ALTERA_AVALON_PIO_DATA(HEX_DIGITS_PIO_BASE, pio_val);
 8000714:	e0fffe17 	ldw	r3,-8(fp)
 8000718:	00803004 	movi	r2,192
 800071c:	10c00035 	stwio	r3,0(r2)
}
 8000720:	0001883a 	nop
 8000724:	e037883a 	mov	sp,fp
 8000728:	dfc00117 	ldw	ra,4(sp)
 800072c:	df000017 	ldw	fp,0(sp)
 8000730:	dec00204 	addi	sp,sp,8
 8000734:	f800283a 	ret

08000738 <setKeycode>:

void setKeycode(int keycode)
{
 8000738:	defffe04 	addi	sp,sp,-8
 800073c:	df000115 	stw	fp,4(sp)
 8000740:	df000104 	addi	fp,sp,4
 8000744:	e13fff15 	stw	r4,-4(fp)
	IOWR_ALTERA_AVALON_PIO_DATA(0x0000100, keycode);
 8000748:	00804004 	movi	r2,256
 800074c:	e0ffff17 	ldw	r3,-4(fp)
 8000750:	10c00035 	stwio	r3,0(r2)
}
 8000754:	0001883a 	nop
 8000758:	e037883a 	mov	sp,fp
 800075c:	df000017 	ldw	fp,0(sp)
 8000760:	dec00104 	addi	sp,sp,4
 8000764:	f800283a 	ret

08000768 <main>:
int main() {
 8000768:	defff204 	addi	sp,sp,-56
 800076c:	dfc00d15 	stw	ra,52(sp)
 8000770:	df000c15 	stw	fp,48(sp)
 8000774:	df000c04 	addi	fp,sp,48
    volatile unsigned int *game_end = (unsigned int*)0x90;
 8000778:	00802404 	movi	r2,144
 800077c:	e0bff715 	stw	r2,-36(fp)
//    IOWR_ALTERA_AVALON_PIO_DATA(0x0000060, 0);
    BYTE rcode;
	BOOT_MOUSE_REPORT buf;		//USB mouse report
	BOOT_KBD_REPORT kbdbuf;

	BYTE runningdebugflag = 0;//flag to dump out a bunch of information when we first get to USB_STATE_RUNNING
 8000780:	e03ff405 	stb	zero,-48(fp)
	BYTE errorflag = 0; //flag once we get an error device so we don't keep dumping out state info
 8000784:	e03ff445 	stb	zero,-47(fp)
	BYTE device;
	WORD keycode;
	int keyVerilog;

	printf("initializing MAX3421E...\n");
 8000788:	01020074 	movhi	r4,2049
 800078c:	21127304 	addi	r4,r4,18892
 8000790:	80056700 	call	8005670 <puts>
	MAX3421E_init();
 8000794:	80038140 	call	8003814 <MAX3421E_init>
	printf("initializing USB...\n");
 8000798:	01020074 	movhi	r4,2049
 800079c:	21127a04 	addi	r4,r4,18920
 80007a0:	80056700 	call	8005670 <puts>
	USB_init();
 80007a4:	8003fc00 	call	8003fc0 <USB_init>

	alt_u8 t1Score = 0;
 80007a8:	e03ff4c5 	stb	zero,-45(fp)
	alt_u8 t2Score = 0;
 80007ac:	e03ff505 	stb	zero,-44(fp)
	alt_u8 x2pos = 0;
 80007b0:	e03ff805 	stb	zero,-32(fp)
	alt_u8 y2pos = 0;
 80007b4:	e03ff845 	stb	zero,-31(fp)
	int pos_buffer = 0;
 80007b8:	e03ff915 	stw	zero,-28(fp)
	srand(4);
 80007bc:	01000104 	movi	r4,4
 80007c0:	80056840 	call	8005684 <srand>
		//add base vals from system.h
		//x80 is a maze ready
		//x90 is game output from hardware
		//x60 is spawn pos
		//x70 is game final reset
		if(t1Score > 3){
 80007c4:	e0bff4c3 	ldbu	r2,-45(fp)
 80007c8:	10800130 	cmpltui	r2,r2,4
 80007cc:	1000031e 	bne	r2,zero,80007dc <main+0x74>
			IOWR_ALTERA_AVALON_PIO_DATA(0x80, 1);
 80007d0:	00c00044 	movi	r3,1
 80007d4:	00802004 	movi	r2,128
 80007d8:	10c00035 	stwio	r3,0(r2)
		}
		if(t2Score > 3){
 80007dc:	e0bff503 	ldbu	r2,-44(fp)
 80007e0:	10800130 	cmpltui	r2,r2,4
 80007e4:	1000031e 	bne	r2,zero,80007f4 <main+0x8c>
			IOWR_ALTERA_AVALON_PIO_DATA(0x80, 2);
 80007e8:	00c00084 	movi	r3,2
 80007ec:	00802004 	movi	r2,128
 80007f0:	10c00035 	stwio	r3,0(r2)
		}
		if(*game_end == 3){
 80007f4:	e0bff717 	ldw	r2,-36(fp)
 80007f8:	10800017 	ldw	r2,0(r2)
 80007fc:	108000d8 	cmpnei	r2,r2,3
 8000800:	1000251e 	bne	r2,zero,8000898 <main+0x130>
			x2pos = rand()%8;
 8000804:	800569c0 	call	800569c <rand>
 8000808:	1007883a 	mov	r3,r2
 800080c:	00a00034 	movhi	r2,32768
 8000810:	108001c4 	addi	r2,r2,7
 8000814:	1884703a 	and	r2,r3,r2
 8000818:	1000040e 	bge	r2,zero,800082c <main+0xc4>
 800081c:	10bfffc4 	addi	r2,r2,-1
 8000820:	00fffe04 	movi	r3,-8
 8000824:	10c4b03a 	or	r2,r2,r3
 8000828:	10800044 	addi	r2,r2,1
 800082c:	e0bff805 	stb	r2,-32(fp)
			y2pos = rand()%5 + 1;
 8000830:	800569c0 	call	800569c <rand>
 8000834:	01400144 	movi	r5,5
 8000838:	1009883a 	mov	r4,r2
 800083c:	80049280 	call	8004928 <__modsi3>
 8000840:	10800044 	addi	r2,r2,1
 8000844:	e0bff845 	stb	r2,-31(fp)
			pos_buffer = (x2pos << 10) | (y2pos<<15);
 8000848:	e0bff803 	ldbu	r2,-32(fp)
 800084c:	100692ba 	slli	r3,r2,10
 8000850:	e0bff843 	ldbu	r2,-31(fp)
 8000854:	100493fa 	slli	r2,r2,15
 8000858:	1884b03a 	or	r2,r3,r2
 800085c:	e0bff915 	stw	r2,-28(fp)
			IOWR_ALTERA_AVALON_PIO_DATA(0x60, pos_buffer);
 8000860:	00801804 	movi	r2,96
 8000864:	e0fff917 	ldw	r3,-28(fp)
 8000868:	10c00035 	stwio	r3,0(r2)
			printf("game starting .. \n");
 800086c:	01020074 	movhi	r4,2049
 8000870:	21127f04 	addi	r4,r4,18940
 8000874:	80056700 	call	8005670 <puts>
	        genMaze(t1Score, t2Score);
 8000878:	e0bff4c3 	ldbu	r2,-45(fp)
 800087c:	e0fff503 	ldbu	r3,-44(fp)
 8000880:	180b883a 	mov	r5,r3
 8000884:	1009883a 	mov	r4,r2
 8000888:	8000d6c0 	call	8000d6c <genMaze>
            IOWR_ALTERA_AVALON_PIO_DATA(0x80, 1);
 800088c:	00c00044 	movi	r3,1
 8000890:	00802004 	movi	r2,128
 8000894:	10c00035 	stwio	r3,0(r2)
        }

		if(*game_end == 2){
 8000898:	e0bff717 	ldw	r2,-36(fp)
 800089c:	10800017 	ldw	r2,0(r2)
 80008a0:	10800098 	cmpnei	r2,r2,2
 80008a4:	1000281e 	bne	r2,zero,8000948 <main+0x1e0>
			x2pos = rand()%8;
 80008a8:	800569c0 	call	800569c <rand>
 80008ac:	1007883a 	mov	r3,r2
 80008b0:	00a00034 	movhi	r2,32768
 80008b4:	108001c4 	addi	r2,r2,7
 80008b8:	1884703a 	and	r2,r3,r2
 80008bc:	1000040e 	bge	r2,zero,80008d0 <main+0x168>
 80008c0:	10bfffc4 	addi	r2,r2,-1
 80008c4:	00fffe04 	movi	r3,-8
 80008c8:	10c4b03a 	or	r2,r2,r3
 80008cc:	10800044 	addi	r2,r2,1
 80008d0:	e0bff805 	stb	r2,-32(fp)
			y2pos = rand()%5 + 1;
 80008d4:	800569c0 	call	800569c <rand>
 80008d8:	01400144 	movi	r5,5
 80008dc:	1009883a 	mov	r4,r2
 80008e0:	80049280 	call	8004928 <__modsi3>
 80008e4:	10800044 	addi	r2,r2,1
 80008e8:	e0bff845 	stb	r2,-31(fp)
			pos_buffer = (x2pos << 10) | (y2pos<<15);
 80008ec:	e0bff803 	ldbu	r2,-32(fp)
 80008f0:	100692ba 	slli	r3,r2,10
 80008f4:	e0bff843 	ldbu	r2,-31(fp)
 80008f8:	100493fa 	slli	r2,r2,15
 80008fc:	1884b03a 	or	r2,r3,r2
 8000900:	e0bff915 	stw	r2,-28(fp)
			IOWR_ALTERA_AVALON_PIO_DATA(0x60, pos_buffer);
 8000904:	00801804 	movi	r2,96
 8000908:	e0fff917 	ldw	r3,-28(fp)
 800090c:	10c00035 	stwio	r3,0(r2)
			t2Score = t2Score + 1;
 8000910:	e0bff503 	ldbu	r2,-44(fp)
 8000914:	10800044 	addi	r2,r2,1
 8000918:	e0bff505 	stb	r2,-44(fp)
			printf("tank 2 wins \n");
 800091c:	01020074 	movhi	r4,2049
 8000920:	21128404 	addi	r4,r4,18960
 8000924:	80056700 	call	8005670 <puts>
			genMaze(t1Score, t2Score);
 8000928:	e0bff4c3 	ldbu	r2,-45(fp)
 800092c:	e0fff503 	ldbu	r3,-44(fp)
 8000930:	180b883a 	mov	r5,r3
 8000934:	1009883a 	mov	r4,r2
 8000938:	8000d6c0 	call	8000d6c <genMaze>
			IOWR_ALTERA_AVALON_PIO_DATA(0x80, 1);
 800093c:	00c00044 	movi	r3,1
 8000940:	00802004 	movi	r2,128
 8000944:	10c00035 	stwio	r3,0(r2)
		}
		if(*game_end == 1){
 8000948:	e0bff717 	ldw	r2,-36(fp)
 800094c:	10800017 	ldw	r2,0(r2)
 8000950:	10800058 	cmpnei	r2,r2,1
 8000954:	1000281e 	bne	r2,zero,80009f8 <main+0x290>
			x2pos = rand()%8;
 8000958:	800569c0 	call	800569c <rand>
 800095c:	1007883a 	mov	r3,r2
 8000960:	00a00034 	movhi	r2,32768
 8000964:	108001c4 	addi	r2,r2,7
 8000968:	1884703a 	and	r2,r3,r2
 800096c:	1000040e 	bge	r2,zero,8000980 <main+0x218>
 8000970:	10bfffc4 	addi	r2,r2,-1
 8000974:	00fffe04 	movi	r3,-8
 8000978:	10c4b03a 	or	r2,r2,r3
 800097c:	10800044 	addi	r2,r2,1
 8000980:	e0bff805 	stb	r2,-32(fp)
			y2pos = rand()%5 + 1;
 8000984:	800569c0 	call	800569c <rand>
 8000988:	01400144 	movi	r5,5
 800098c:	1009883a 	mov	r4,r2
 8000990:	80049280 	call	8004928 <__modsi3>
 8000994:	10800044 	addi	r2,r2,1
 8000998:	e0bff845 	stb	r2,-31(fp)
			pos_buffer = (x2pos << 10) | (y2pos<<15);
 800099c:	e0bff803 	ldbu	r2,-32(fp)
 80009a0:	100692ba 	slli	r3,r2,10
 80009a4:	e0bff843 	ldbu	r2,-31(fp)
 80009a8:	100493fa 	slli	r2,r2,15
 80009ac:	1884b03a 	or	r2,r3,r2
 80009b0:	e0bff915 	stw	r2,-28(fp)
			IOWR_ALTERA_AVALON_PIO_DATA(0x60, pos_buffer);
 80009b4:	00801804 	movi	r2,96
 80009b8:	e0fff917 	ldw	r3,-28(fp)
 80009bc:	10c00035 	stwio	r3,0(r2)
			t1Score = t1Score + 1;
 80009c0:	e0bff4c3 	ldbu	r2,-45(fp)
 80009c4:	10800044 	addi	r2,r2,1
 80009c8:	e0bff4c5 	stb	r2,-45(fp)
			printf("tank 1 wins \n");
 80009cc:	01020074 	movhi	r4,2049
 80009d0:	21128804 	addi	r4,r4,18976
 80009d4:	80056700 	call	8005670 <puts>
			genMaze(t1Score, t2Score);
 80009d8:	e0bff4c3 	ldbu	r2,-45(fp)
 80009dc:	e0fff503 	ldbu	r3,-44(fp)
 80009e0:	180b883a 	mov	r5,r3
 80009e4:	1009883a 	mov	r4,r2
 80009e8:	8000d6c0 	call	8000d6c <genMaze>
			IOWR_ALTERA_AVALON_PIO_DATA(0x80, 1);
 80009ec:	00c00044 	movi	r3,1
 80009f0:	00802004 	movi	r2,128
 80009f4:	10c00035 	stwio	r3,0(r2)
		}
        IOWR_ALTERA_AVALON_PIO_DATA(0x80, 0);
 80009f8:	0007883a 	mov	r3,zero
 80009fc:	00802004 	movi	r2,128
 8000a00:	10c00035 	stwio	r3,0(r2)

		printf(".");
 8000a04:	01000b84 	movi	r4,46
 8000a08:	80055980 	call	8005598 <putchar>
		MAX3421E_Task();
 8000a0c:	80038a80 	call	80038a8 <MAX3421E_Task>
		//usleep (1000);
		USB_Task();
 8000a10:	80040580 	call	8004058 <USB_Task>
		//usleep (500000);
		if (GetUsbTaskState() == USB_STATE_RUNNING) {
 8000a14:	80047c80 	call	80047c8 <GetUsbTaskState>
 8000a18:	10803fcc 	andi	r2,r2,255
 8000a1c:	10801018 	cmpnei	r2,r2,64
 8000a20:	1000ac1e 	bne	r2,zero,8000cd4 <main+0x56c>
			if (!runningdebugflag) {
 8000a24:	e0bff403 	ldbu	r2,-48(fp)
 8000a28:	1000071e 	bne	r2,zero,8000a48 <main+0x2e0>
				runningdebugflag = 1;
 8000a2c:	00800044 	movi	r2,1
 8000a30:	e0bff405 	stb	r2,-48(fp)
				setLED(9);
 8000a34:	01000244 	movi	r4,9
 8000a38:	800045c0 	call	800045c <setLED>
				device = GetDriverandReport();
 8000a3c:	800026c0 	call	800026c <GetDriverandReport>
 8000a40:	e0bff485 	stb	r2,-46(fp)
 8000a44:	003f5f06 	br	80007c4 <__alt_data_end+0xfc0007c4>
			} else if (device == 1) {
 8000a48:	e0bff483 	ldbu	r2,-46(fp)
 8000a4c:	10800058 	cmpnei	r2,r2,1
 8000a50:	1000441e 	bne	r2,zero,8000b64 <main+0x3fc>
				//run keyboard debug polling
				rcode = kbdPoll(&kbdbuf);
 8000a54:	e0bffe04 	addi	r2,fp,-8
 8000a58:	1009883a 	mov	r4,r2
 8000a5c:	80031840 	call	8003184 <kbdPoll>
 8000a60:	e0bffa05 	stb	r2,-24(fp)
				if (rcode == hrNAK) {
 8000a64:	e0bffa03 	ldbu	r2,-24(fp)
 8000a68:	10800118 	cmpnei	r2,r2,4
 8000a6c:	1000b926 	beq	r2,zero,8000d54 <main+0x5ec>
					continue; //NAK means no new data
				} else if (rcode) {
 8000a70:	e0bffa03 	ldbu	r2,-24(fp)
 8000a74:	1000b91e 	bne	r2,zero,8000d5c <main+0x5f4>
					//printf("Rcode: ");
					//printf("%x \n", rcode);
					continue;
				}
				//printf("keycodes: ");
				for (int i = 0; i < 6; i++) {
 8000a78:	e03ff615 	stw	zero,-40(fp)
 8000a7c:	00000306 	br	8000a8c <main+0x324>
 8000a80:	e0bff617 	ldw	r2,-40(fp)
 8000a84:	10800044 	addi	r2,r2,1
 8000a88:	e0bff615 	stw	r2,-40(fp)
 8000a8c:	e0bff617 	ldw	r2,-40(fp)
 8000a90:	10800190 	cmplti	r2,r2,6
 8000a94:	103ffa1e 	bne	r2,zero,8000a80 <__alt_data_end+0xfc000a80>
					//printf("%x ", kbdbuf.keycode[i]);
				}
				keyVerilog = 0;
 8000a98:	e03ffb15 	stw	zero,-20(fp)
				keyVerilog = keyVerilog+kbdbuf.keycode[3];
 8000a9c:	e0bfff43 	ldbu	r2,-3(fp)
 8000aa0:	10803fcc 	andi	r2,r2,255
 8000aa4:	e0fffb17 	ldw	r3,-20(fp)
 8000aa8:	1885883a 	add	r2,r3,r2
 8000aac:	e0bffb15 	stw	r2,-20(fp)
				keyVerilog = keyVerilog<<8;
 8000ab0:	e0bffb17 	ldw	r2,-20(fp)
 8000ab4:	1004923a 	slli	r2,r2,8
 8000ab8:	e0bffb15 	stw	r2,-20(fp)
				keyVerilog = keyVerilog+kbdbuf.keycode[2];
 8000abc:	e0bfff03 	ldbu	r2,-4(fp)
 8000ac0:	10803fcc 	andi	r2,r2,255
 8000ac4:	e0fffb17 	ldw	r3,-20(fp)
 8000ac8:	1885883a 	add	r2,r3,r2
 8000acc:	e0bffb15 	stw	r2,-20(fp)
				keyVerilog = keyVerilog<<8;
 8000ad0:	e0bffb17 	ldw	r2,-20(fp)
 8000ad4:	1004923a 	slli	r2,r2,8
 8000ad8:	e0bffb15 	stw	r2,-20(fp)
				keyVerilog = keyVerilog+kbdbuf.keycode[0];
 8000adc:	e0bffe83 	ldbu	r2,-6(fp)
 8000ae0:	10803fcc 	andi	r2,r2,255
 8000ae4:	e0fffb17 	ldw	r3,-20(fp)
 8000ae8:	1885883a 	add	r2,r3,r2
 8000aec:	e0bffb15 	stw	r2,-20(fp)
				keyVerilog = keyVerilog<<8;
 8000af0:	e0bffb17 	ldw	r2,-20(fp)
 8000af4:	1004923a 	slli	r2,r2,8
 8000af8:	e0bffb15 	stw	r2,-20(fp)
				keyVerilog = keyVerilog+kbdbuf.keycode[1];
 8000afc:	e0bffec3 	ldbu	r2,-5(fp)
 8000b00:	10803fcc 	andi	r2,r2,255
 8000b04:	e0fffb17 	ldw	r3,-20(fp)
 8000b08:	1885883a 	add	r2,r3,r2
 8000b0c:	e0bffb15 	stw	r2,-20(fp)

				setKeycode(keyVerilog);
 8000b10:	e13ffb17 	ldw	r4,-20(fp)
 8000b14:	80007380 	call	8000738 <setKeycode>
				printf("%x",keyVerilog);
 8000b18:	e17ffb17 	ldw	r5,-20(fp)
 8000b1c:	01020074 	movhi	r4,2049
 8000b20:	21128c04 	addi	r4,r4,18992
 8000b24:	80055540 	call	8005554 <printf>

				printSignedHex0(kbdbuf.keycode[0]);
 8000b28:	e0bffe83 	ldbu	r2,-6(fp)
 8000b2c:	10803fcc 	andi	r2,r2,255
 8000b30:	1080201c 	xori	r2,r2,128
 8000b34:	10bfe004 	addi	r2,r2,-128
 8000b38:	1009883a 	mov	r4,r2
 8000b3c:	80004e80 	call	80004e8 <printSignedHex0>
				printSignedHex1(kbdbuf.keycode[1]);
 8000b40:	e0bffec3 	ldbu	r2,-5(fp)
 8000b44:	10803fcc 	andi	r2,r2,255
 8000b48:	1080201c 	xori	r2,r2,128
 8000b4c:	10bfe004 	addi	r2,r2,-128
 8000b50:	1009883a 	mov	r4,r2
 8000b54:	80006000 	call	8000600 <printSignedHex1>
				printf("\n");
 8000b58:	01000284 	movi	r4,10
 8000b5c:	80055980 	call	8005598 <putchar>
 8000b60:	003f1806 	br	80007c4 <__alt_data_end+0xfc0007c4>
			}

			else if (device == 2) {
 8000b64:	e0bff483 	ldbu	r2,-46(fp)
 8000b68:	10800098 	cmpnei	r2,r2,2
 8000b6c:	103f151e 	bne	r2,zero,80007c4 <__alt_data_end+0xfc0007c4>
				rcode = mousePoll(&buf);
 8000b70:	e0bffc04 	addi	r2,fp,-16
 8000b74:	1009883a 	mov	r4,r2
 8000b78:	80030fc0 	call	80030fc <mousePoll>
 8000b7c:	e0bffa05 	stb	r2,-24(fp)
				if (rcode == hrNAK) {
 8000b80:	e0bffa03 	ldbu	r2,-24(fp)
 8000b84:	10800118 	cmpnei	r2,r2,4
 8000b88:	10007626 	beq	r2,zero,8000d64 <main+0x5fc>
					//NAK means no new data
					continue;
				} else if (rcode) {
 8000b8c:	e0bffa03 	ldbu	r2,-24(fp)
 8000b90:	10000926 	beq	r2,zero,8000bb8 <main+0x450>
					printf("Rcode: ");
 8000b94:	01020074 	movhi	r4,2049
 8000b98:	21128d04 	addi	r4,r4,18996
 8000b9c:	80055540 	call	8005554 <printf>
					printf("%x \n", rcode);
 8000ba0:	e0bffa03 	ldbu	r2,-24(fp)
 8000ba4:	100b883a 	mov	r5,r2
 8000ba8:	01020074 	movhi	r4,2049
 8000bac:	21126104 	addi	r4,r4,18820
 8000bb0:	80055540 	call	8005554 <printf>
					continue;
 8000bb4:	00006c06 	br	8000d68 <main+0x600>
				}
				printf("X displacement: ");
 8000bb8:	01020074 	movhi	r4,2049
 8000bbc:	21128f04 	addi	r4,r4,19004
 8000bc0:	80055540 	call	8005554 <printf>
				printf("%d ", (signed char) buf.Xdispl);
 8000bc4:	e0bffc43 	ldbu	r2,-15(fp)
 8000bc8:	10803fcc 	andi	r2,r2,255
 8000bcc:	1080201c 	xori	r2,r2,128
 8000bd0:	10bfe004 	addi	r2,r2,-128
 8000bd4:	100b883a 	mov	r5,r2
 8000bd8:	01020074 	movhi	r4,2049
 8000bdc:	21129404 	addi	r4,r4,19024
 8000be0:	80055540 	call	8005554 <printf>
				printSignedHex0((signed char) buf.Xdispl);
 8000be4:	e0bffc43 	ldbu	r2,-15(fp)
 8000be8:	10803fcc 	andi	r2,r2,255
 8000bec:	1080201c 	xori	r2,r2,128
 8000bf0:	10bfe004 	addi	r2,r2,-128
 8000bf4:	1009883a 	mov	r4,r2
 8000bf8:	80004e80 	call	80004e8 <printSignedHex0>
				printf("Y displacement: ");
 8000bfc:	01020074 	movhi	r4,2049
 8000c00:	21129504 	addi	r4,r4,19028
 8000c04:	80055540 	call	8005554 <printf>
				printf("%d ", (signed char) buf.Ydispl);
 8000c08:	e0bffc83 	ldbu	r2,-14(fp)
 8000c0c:	10803fcc 	andi	r2,r2,255
 8000c10:	1080201c 	xori	r2,r2,128
 8000c14:	10bfe004 	addi	r2,r2,-128
 8000c18:	100b883a 	mov	r5,r2
 8000c1c:	01020074 	movhi	r4,2049
 8000c20:	21129404 	addi	r4,r4,19024
 8000c24:	80055540 	call	8005554 <printf>
				printSignedHex1((signed char) buf.Ydispl);
 8000c28:	e0bffc83 	ldbu	r2,-14(fp)
 8000c2c:	10803fcc 	andi	r2,r2,255
 8000c30:	1080201c 	xori	r2,r2,128
 8000c34:	10bfe004 	addi	r2,r2,-128
 8000c38:	1009883a 	mov	r4,r2
 8000c3c:	80006000 	call	8000600 <printSignedHex1>
				printf("Buttons: ");
 8000c40:	01020074 	movhi	r4,2049
 8000c44:	21129a04 	addi	r4,r4,19048
 8000c48:	80055540 	call	8005554 <printf>
				printf("%x\n", buf.button);
 8000c4c:	e0bffc03 	ldbu	r2,-16(fp)
 8000c50:	10803fcc 	andi	r2,r2,255
 8000c54:	100b883a 	mov	r5,r2
 8000c58:	01020074 	movhi	r4,2049
 8000c5c:	21129d04 	addi	r4,r4,19060
 8000c60:	80055540 	call	8005554 <printf>
				if (buf.button & 0x04)
 8000c64:	e0bffc03 	ldbu	r2,-16(fp)
 8000c68:	10803fcc 	andi	r2,r2,255
 8000c6c:	1080010c 	andi	r2,r2,4
 8000c70:	10000326 	beq	r2,zero,8000c80 <main+0x518>
					setLED(2);
 8000c74:	01000084 	movi	r4,2
 8000c78:	800045c0 	call	800045c <setLED>
 8000c7c:	00000206 	br	8000c88 <main+0x520>
				else
					clearLED(2);
 8000c80:	01000084 	movi	r4,2
 8000c84:	80004a00 	call	80004a0 <clearLED>
				if (buf.button & 0x02)
 8000c88:	e0bffc03 	ldbu	r2,-16(fp)
 8000c8c:	10803fcc 	andi	r2,r2,255
 8000c90:	1080008c 	andi	r2,r2,2
 8000c94:	10000326 	beq	r2,zero,8000ca4 <main+0x53c>
					setLED(1);
 8000c98:	01000044 	movi	r4,1
 8000c9c:	800045c0 	call	800045c <setLED>
 8000ca0:	00000206 	br	8000cac <main+0x544>
				else
					clearLED(1);
 8000ca4:	01000044 	movi	r4,1
 8000ca8:	80004a00 	call	80004a0 <clearLED>
				if (buf.button & 0x01)
 8000cac:	e0bffc03 	ldbu	r2,-16(fp)
 8000cb0:	10803fcc 	andi	r2,r2,255
 8000cb4:	1080004c 	andi	r2,r2,1
 8000cb8:	10000326 	beq	r2,zero,8000cc8 <main+0x560>
					setLED(0);
 8000cbc:	0009883a 	mov	r4,zero
 8000cc0:	800045c0 	call	800045c <setLED>
 8000cc4:	003ebf06 	br	80007c4 <__alt_data_end+0xfc0007c4>
				else
					clearLED(0);
 8000cc8:	0009883a 	mov	r4,zero
 8000ccc:	80004a00 	call	80004a0 <clearLED>
 8000cd0:	003ebc06 	br	80007c4 <__alt_data_end+0xfc0007c4>
			}
		} else if (GetUsbTaskState() == USB_STATE_ERROR) {
 8000cd4:	80047c80 	call	80047c8 <GetUsbTaskState>
 8000cd8:	10803fcc 	andi	r2,r2,255
 8000cdc:	10803fd8 	cmpnei	r2,r2,255
 8000ce0:	10000a1e 	bne	r2,zero,8000d0c <main+0x5a4>
			if (!errorflag) {
 8000ce4:	e0bff443 	ldbu	r2,-47(fp)
 8000ce8:	103eb61e 	bne	r2,zero,80007c4 <__alt_data_end+0xfc0007c4>
				errorflag = 1;
 8000cec:	00800044 	movi	r2,1
 8000cf0:	e0bff445 	stb	r2,-47(fp)
				clearLED(9);
 8000cf4:	01000244 	movi	r4,9
 8000cf8:	80004a00 	call	80004a0 <clearLED>
				printf("USB Error State\n");
 8000cfc:	01020074 	movhi	r4,2049
 8000d00:	21129e04 	addi	r4,r4,19064
 8000d04:	80056700 	call	8005670 <puts>
 8000d08:	003eae06 	br	80007c4 <__alt_data_end+0xfc0007c4>
				//print out string descriptor here
			}
		} else //not in USB running state
		{

			printf("USB task state: ");
 8000d0c:	01020074 	movhi	r4,2049
 8000d10:	2112a204 	addi	r4,r4,19080
 8000d14:	80055540 	call	8005554 <printf>
			printf("%x\n", GetUsbTaskState());
 8000d18:	80047c80 	call	80047c8 <GetUsbTaskState>
 8000d1c:	10803fcc 	andi	r2,r2,255
 8000d20:	100b883a 	mov	r5,r2
 8000d24:	01020074 	movhi	r4,2049
 8000d28:	21129d04 	addi	r4,r4,19060
 8000d2c:	80055540 	call	8005554 <printf>
			if (runningdebugflag) {	//previously running, reset USB hardware just to clear out any funky state, HS/FS etc
 8000d30:	e0bff403 	ldbu	r2,-48(fp)
 8000d34:	10000326 	beq	r2,zero,8000d44 <main+0x5dc>
				runningdebugflag = 0;
 8000d38:	e03ff405 	stb	zero,-48(fp)
				MAX3421E_init();
 8000d3c:	80038140 	call	8003814 <MAX3421E_init>
				USB_init();
 8000d40:	8003fc00 	call	8003fc0 <USB_init>
			}
			errorflag = 0;
 8000d44:	e03ff445 	stb	zero,-47(fp)
			clearLED(9);
 8000d48:	01000244 	movi	r4,9
 8000d4c:	80004a00 	call	80004a0 <clearLED>
 8000d50:	003e9c06 	br	80007c4 <__alt_data_end+0xfc0007c4>
				device = GetDriverandReport();
			} else if (device == 1) {
				//run keyboard debug polling
				rcode = kbdPoll(&kbdbuf);
				if (rcode == hrNAK) {
					continue; //NAK means no new data
 8000d54:	0001883a 	nop
 8000d58:	003e9a06 	br	80007c4 <__alt_data_end+0xfc0007c4>
				} else if (rcode) {
					//printf("Rcode: ");
					//printf("%x \n", rcode);
					continue;
 8000d5c:	0001883a 	nop
 8000d60:	003e9806 	br	80007c4 <__alt_data_end+0xfc0007c4>

			else if (device == 2) {
				rcode = mousePoll(&buf);
				if (rcode == hrNAK) {
					//NAK means no new data
					continue;
 8000d64:	0001883a 	nop
			}
			errorflag = 0;
			clearLED(9);
		}

	}
 8000d68:	003e9606 	br	80007c4 <__alt_data_end+0xfc0007c4>

08000d6c <genMaze>:
 
#define offset(x,y) ((Ppeek(m_stack).second + y) * mazeWidth + (Ppeek(m_stack).first+x))


void genMaze(alt_u8 t1Score, alt_u8 t2Score)
{
 8000d6c:	deec7e04 	addi	sp,sp,-19976
 8000d70:	dfd38115 	stw	ra,19972(sp)
 8000d74:	df138015 	stw	fp,19968(sp)
 8000d78:	ddd37f15 	stw	r23,19964(sp)
 8000d7c:	dd937e15 	stw	r22,19960(sp)
 8000d80:	dd537d15 	stw	r21,19956(sp)
 8000d84:	dd137c15 	stw	r20,19952(sp)
 8000d88:	dcd37b15 	stw	r19,19948(sp)
 8000d8c:	dc937a15 	stw	r18,19944(sp)
 8000d90:	dc537915 	stw	r17,19940(sp)
 8000d94:	dc137815 	stw	r16,19936(sp)
 8000d98:	df138004 	addi	fp,sp,19968
 8000d9c:	2007883a 	mov	r3,r4
 8000da0:	2805883a 	mov	r2,r5
 8000da4:	e0fff505 	stb	r3,-44(fp)
 8000da8:	e0bff605 	stb	r2,-40(fp)
 8000dac:	d805883a 	mov	r2,sp
 8000db0:	e0bff715 	stw	r2,-36(fp)
    srand(time(NULL));
 8000db4:	0009883a 	mov	r4,zero
 8000db8:	80057ec0 	call	80057ec <time>
 8000dbc:	1009883a 	mov	r4,r2
 8000dc0:	80056840 	call	8005684 <srand>
    static int PATH_N = 0x01;
    static int PATH_E = 0x02;
    static int PATH_S = 0x04;
    static int PATH_W = 0x08;
    static int VISITED = 0x10;
    int mazeWidth = 8;
 8000dc4:	00800204 	movi	r2,8
 8000dc8:	e0ac9d15 	stw	r2,-19852(fp)
    int mazeHeight = 5;
 8000dcc:	00800144 	movi	r2,5
 8000dd0:	e0ac9e15 	stw	r2,-19848(fp)
    int pathWidth = 19;
 8000dd4:	008004c4 	movi	r2,19
 8000dd8:	e0ac9f15 	stw	r2,-19844(fp)
    struct Stack* neighbors = createStack(4);
 8000ddc:	01000104 	movi	r4,4
 8000de0:	800268c0 	call	800268c <createStack>
 8000de4:	e0aca015 	stw	r2,-19840(fp)
    struct paired_stack* m_stack = createPStack(mazeWidth*mazeHeight);
 8000de8:	e16c9e17 	ldw	r5,-19848(fp)
 8000dec:	e12c9d17 	ldw	r4,-19852(fp)
 8000df0:	8004a580 	call	8004a58 <__mulsi3>
 8000df4:	1009883a 	mov	r4,r2
 8000df8:	80024140 	call	8002414 <createPStack>
 8000dfc:	e0aca115 	stw	r2,-19836(fp)
    int visitedCells;
    
    alt_u8 maze_screen_buffer[120][160];

    int m_maze[mazeWidth*mazeHeight];
 8000e00:	e16c9e17 	ldw	r5,-19848(fp)
 8000e04:	e12c9d17 	ldw	r4,-19852(fp)
 8000e08:	8004a580 	call	8004a58 <__mulsi3>
 8000e0c:	10ffffc4 	addi	r3,r2,-1
 8000e10:	e0eca215 	stw	r3,-19832(fp)
 8000e14:	1007883a 	mov	r3,r2
 8000e18:	182d883a 	mov	r22,r3
 8000e1c:	002f883a 	mov	r23,zero
 8000e20:	b006d6fa 	srli	r3,r22,27
 8000e24:	b826917a 	slli	r19,r23,5
 8000e28:	1ce6b03a 	or	r19,r3,r19
 8000e2c:	b024917a 	slli	r18,r22,5
 8000e30:	1007883a 	mov	r3,r2
 8000e34:	1829883a 	mov	r20,r3
 8000e38:	002b883a 	mov	r21,zero
 8000e3c:	a006d6fa 	srli	r3,r20,27
 8000e40:	a822917a 	slli	r17,r21,5
 8000e44:	1c62b03a 	or	r17,r3,r17
 8000e48:	a020917a 	slli	r16,r20,5
 8000e4c:	1085883a 	add	r2,r2,r2
 8000e50:	1085883a 	add	r2,r2,r2
 8000e54:	108000c4 	addi	r2,r2,3
 8000e58:	108000c4 	addi	r2,r2,3
 8000e5c:	1004d0ba 	srli	r2,r2,2
 8000e60:	1085883a 	add	r2,r2,r2
 8000e64:	1085883a 	add	r2,r2,r2
 8000e68:	d8b7c83a 	sub	sp,sp,r2
 8000e6c:	d805883a 	mov	r2,sp
 8000e70:	108000c4 	addi	r2,r2,3
 8000e74:	1004d0ba 	srli	r2,r2,2
 8000e78:	1085883a 	add	r2,r2,r2
 8000e7c:	1085883a 	add	r2,r2,r2
 8000e80:	e0aca315 	stw	r2,-19828(fp)
    memset(m_maze, 0x00, mazeWidth*mazeHeight*sizeof(int));
 8000e84:	e42ca317 	ldw	r16,-19828(fp)
 8000e88:	e16c9e17 	ldw	r5,-19848(fp)
 8000e8c:	e12c9d17 	ldw	r4,-19852(fp)
 8000e90:	8004a580 	call	8004a58 <__mulsi3>
 8000e94:	1085883a 	add	r2,r2,r2
 8000e98:	1085883a 	add	r2,r2,r2
 8000e9c:	100d883a 	mov	r6,r2
 8000ea0:	000b883a 	mov	r5,zero
 8000ea4:	8009883a 	mov	r4,r16
 8000ea8:	80053fc0 	call	80053fc <memset>
    
    int x = rand() % mazeWidth;
 8000eac:	800569c0 	call	800569c <rand>
 8000eb0:	e16c9d17 	ldw	r5,-19852(fp)
 8000eb4:	1009883a 	mov	r4,r2
 8000eb8:	80049280 	call	8004928 <__modsi3>
 8000ebc:	e0aca415 	stw	r2,-19824(fp)
    int y = rand() % mazeHeight;
 8000ec0:	800569c0 	call	800569c <rand>
 8000ec4:	e16c9e17 	ldw	r5,-19848(fp)
 8000ec8:	1009883a 	mov	r4,r2
 8000ecc:	80049280 	call	8004928 <__modsi3>
 8000ed0:	e0aca515 	stw	r2,-19820(fp)
    printf("x: %d, y: %d", x, y);
 8000ed4:	e1aca517 	ldw	r6,-19820(fp)
 8000ed8:	e16ca417 	ldw	r5,-19824(fp)
 8000edc:	01020074 	movhi	r4,2049
 8000ee0:	2112a704 	addi	r4,r4,19100
 8000ee4:	80055540 	call	8005554 <printf>

    Ppush(m_stack, (struct pair){x,y});
 8000ee8:	e0aca417 	ldw	r2,-19824(fp)
 8000eec:	e0acb115 	stw	r2,-19772(fp)
 8000ef0:	e0aca517 	ldw	r2,-19820(fp)
 8000ef4:	e0acb215 	stw	r2,-19768(fp)
 8000ef8:	e16cb117 	ldw	r5,-19772(fp)
 8000efc:	e1acb217 	ldw	r6,-19768(fp)
 8000f00:	e12ca117 	ldw	r4,-19836(fp)
 8000f04:	80025000 	call	8002500 <Ppush>
    m_maze[y*mazeWidth + x] = VISITED;
 8000f08:	e16c9d17 	ldw	r5,-19852(fp)
 8000f0c:	e12ca517 	ldw	r4,-19820(fp)
 8000f10:	8004a580 	call	8004a58 <__mulsi3>
 8000f14:	1007883a 	mov	r3,r2
 8000f18:	e0aca417 	ldw	r2,-19824(fp)
 8000f1c:	1885883a 	add	r2,r3,r2
 8000f20:	d0e00117 	ldw	r3,-32764(gp)
 8000f24:	e12ca317 	ldw	r4,-19828(fp)
 8000f28:	1085883a 	add	r2,r2,r2
 8000f2c:	1085883a 	add	r2,r2,r2
 8000f30:	2085883a 	add	r2,r4,r2
 8000f34:	10c00015 	stw	r3,0(r2)

    printf("offset is %d \n", offset(0,0));
 8000f38:	e12ca117 	ldw	r4,-19836(fp)
 8000f3c:	800260c0 	call	800260c <Ppeek>
 8000f40:	1009883a 	mov	r4,r2
 8000f44:	180b883a 	mov	r5,r3
 8000f48:	2805883a 	mov	r2,r5
 8000f4c:	e16c9d17 	ldw	r5,-19852(fp)
 8000f50:	1009883a 	mov	r4,r2
 8000f54:	8004a580 	call	8004a58 <__mulsi3>
 8000f58:	1021883a 	mov	r16,r2
 8000f5c:	e12ca117 	ldw	r4,-19836(fp)
 8000f60:	800260c0 	call	800260c <Ppeek>
 8000f64:	1009883a 	mov	r4,r2
 8000f68:	180b883a 	mov	r5,r3
 8000f6c:	2005883a 	mov	r2,r4
 8000f70:	8085883a 	add	r2,r16,r2
 8000f74:	100b883a 	mov	r5,r2
 8000f78:	01020074 	movhi	r4,2049
 8000f7c:	2112ab04 	addi	r4,r4,19116
 8000f80:	80055540 	call	8005554 <printf>
    visitedCells = 1;
 8000f84:	00800044 	movi	r2,1
 8000f88:	e0ac8015 	stw	r2,-19968(fp)

    int next_cell_dir;

    while(visitedCells < mazeWidth*mazeHeight){
 8000f8c:	0001e906 	br	8001734 <genMaze+0x9c8>
        while(!isEmpty(neighbors))
            pop(neighbors);
 8000f90:	e12ca017 	ldw	r4,-19840(fp)
 8000f94:	80027e80 	call	80027e8 <pop>
    visitedCells = 1;

    int next_cell_dir;

    while(visitedCells < mazeWidth*mazeHeight){
        while(!isEmpty(neighbors))
 8000f98:	e12ca017 	ldw	r4,-19840(fp)
 8000f9c:	80027400 	call	8002740 <isEmpty>
 8000fa0:	103ffb26 	beq	r2,zero,8000f90 <__alt_data_end+0xfc000f90>
            pop(neighbors);
        if(Ppeek(m_stack).second > 0 && (m_maze[offset(0,-1)] & VISITED) == 0)
 8000fa4:	e12ca117 	ldw	r4,-19836(fp)
 8000fa8:	800260c0 	call	800260c <Ppeek>
 8000fac:	1009883a 	mov	r4,r2
 8000fb0:	180b883a 	mov	r5,r3
 8000fb4:	2805883a 	mov	r2,r5
 8000fb8:	00801b0e 	bge	zero,r2,8001028 <genMaze+0x2bc>
 8000fbc:	e12ca117 	ldw	r4,-19836(fp)
 8000fc0:	800260c0 	call	800260c <Ppeek>
 8000fc4:	1009883a 	mov	r4,r2
 8000fc8:	180b883a 	mov	r5,r3
 8000fcc:	2805883a 	mov	r2,r5
 8000fd0:	10bfffc4 	addi	r2,r2,-1
 8000fd4:	e16c9d17 	ldw	r5,-19852(fp)
 8000fd8:	1009883a 	mov	r4,r2
 8000fdc:	8004a580 	call	8004a58 <__mulsi3>
 8000fe0:	1021883a 	mov	r16,r2
 8000fe4:	e12ca117 	ldw	r4,-19836(fp)
 8000fe8:	800260c0 	call	800260c <Ppeek>
 8000fec:	1009883a 	mov	r4,r2
 8000ff0:	180b883a 	mov	r5,r3
 8000ff4:	2005883a 	mov	r2,r4
 8000ff8:	8085883a 	add	r2,r16,r2
 8000ffc:	e0eca317 	ldw	r3,-19828(fp)
 8001000:	1085883a 	add	r2,r2,r2
 8001004:	1085883a 	add	r2,r2,r2
 8001008:	1885883a 	add	r2,r3,r2
 800100c:	10c00017 	ldw	r3,0(r2)
 8001010:	d0a00117 	ldw	r2,-32764(gp)
 8001014:	1884703a 	and	r2,r3,r2
 8001018:	1000031e 	bne	r2,zero,8001028 <genMaze+0x2bc>
            push(neighbors, 0);
 800101c:	000b883a 	mov	r5,zero
 8001020:	e12ca017 	ldw	r4,-19840(fp)
 8001024:	80027700 	call	8002770 <push>
        if(Ppeek(m_stack).first < (mazeWidth -1) && (m_maze[offset(1,0)] & VISITED) == 0)
 8001028:	e12ca117 	ldw	r4,-19836(fp)
 800102c:	800260c0 	call	800260c <Ppeek>
 8001030:	1009883a 	mov	r4,r2
 8001034:	180b883a 	mov	r5,r3
 8001038:	2007883a 	mov	r3,r4
 800103c:	e0ac9d17 	ldw	r2,-19852(fp)
 8001040:	10bfffc4 	addi	r2,r2,-1
 8001044:	18801b0e 	bge	r3,r2,80010b4 <genMaze+0x348>
 8001048:	e12ca117 	ldw	r4,-19836(fp)
 800104c:	800260c0 	call	800260c <Ppeek>
 8001050:	1009883a 	mov	r4,r2
 8001054:	180b883a 	mov	r5,r3
 8001058:	2805883a 	mov	r2,r5
 800105c:	e16c9d17 	ldw	r5,-19852(fp)
 8001060:	1009883a 	mov	r4,r2
 8001064:	8004a580 	call	8004a58 <__mulsi3>
 8001068:	1021883a 	mov	r16,r2
 800106c:	e12ca117 	ldw	r4,-19836(fp)
 8001070:	800260c0 	call	800260c <Ppeek>
 8001074:	1009883a 	mov	r4,r2
 8001078:	180b883a 	mov	r5,r3
 800107c:	2005883a 	mov	r2,r4
 8001080:	10800044 	addi	r2,r2,1
 8001084:	8085883a 	add	r2,r16,r2
 8001088:	e0eca317 	ldw	r3,-19828(fp)
 800108c:	1085883a 	add	r2,r2,r2
 8001090:	1085883a 	add	r2,r2,r2
 8001094:	1885883a 	add	r2,r3,r2
 8001098:	10c00017 	ldw	r3,0(r2)
 800109c:	d0a00117 	ldw	r2,-32764(gp)
 80010a0:	1884703a 	and	r2,r3,r2
 80010a4:	1000031e 	bne	r2,zero,80010b4 <genMaze+0x348>
            push(neighbors, 1);
 80010a8:	01400044 	movi	r5,1
 80010ac:	e12ca017 	ldw	r4,-19840(fp)
 80010b0:	80027700 	call	8002770 <push>
        if(Ppeek(m_stack).second < (mazeHeight -1) && (m_maze[offset(0,1)] & VISITED) == 0)
 80010b4:	e12ca117 	ldw	r4,-19836(fp)
 80010b8:	800260c0 	call	800260c <Ppeek>
 80010bc:	1009883a 	mov	r4,r2
 80010c0:	180b883a 	mov	r5,r3
 80010c4:	2807883a 	mov	r3,r5
 80010c8:	e0ac9e17 	ldw	r2,-19848(fp)
 80010cc:	10bfffc4 	addi	r2,r2,-1
 80010d0:	18801b0e 	bge	r3,r2,8001140 <genMaze+0x3d4>
 80010d4:	e12ca117 	ldw	r4,-19836(fp)
 80010d8:	800260c0 	call	800260c <Ppeek>
 80010dc:	1009883a 	mov	r4,r2
 80010e0:	180b883a 	mov	r5,r3
 80010e4:	2805883a 	mov	r2,r5
 80010e8:	10800044 	addi	r2,r2,1
 80010ec:	e16c9d17 	ldw	r5,-19852(fp)
 80010f0:	1009883a 	mov	r4,r2
 80010f4:	8004a580 	call	8004a58 <__mulsi3>
 80010f8:	1021883a 	mov	r16,r2
 80010fc:	e12ca117 	ldw	r4,-19836(fp)
 8001100:	800260c0 	call	800260c <Ppeek>
 8001104:	1009883a 	mov	r4,r2
 8001108:	180b883a 	mov	r5,r3
 800110c:	2005883a 	mov	r2,r4
 8001110:	8085883a 	add	r2,r16,r2
 8001114:	e0eca317 	ldw	r3,-19828(fp)
 8001118:	1085883a 	add	r2,r2,r2
 800111c:	1085883a 	add	r2,r2,r2
 8001120:	1885883a 	add	r2,r3,r2
 8001124:	10c00017 	ldw	r3,0(r2)
 8001128:	d0a00117 	ldw	r2,-32764(gp)
 800112c:	1884703a 	and	r2,r3,r2
 8001130:	1000031e 	bne	r2,zero,8001140 <genMaze+0x3d4>
            push(neighbors, 2);
 8001134:	01400084 	movi	r5,2
 8001138:	e12ca017 	ldw	r4,-19840(fp)
 800113c:	80027700 	call	8002770 <push>
        if(Ppeek(m_stack).first > 0 && (m_maze[offset(-1,0)] & VISITED) == 0)
 8001140:	e12ca117 	ldw	r4,-19836(fp)
 8001144:	800260c0 	call	800260c <Ppeek>
 8001148:	1009883a 	mov	r4,r2
 800114c:	180b883a 	mov	r5,r3
 8001150:	2005883a 	mov	r2,r4
 8001154:	00801b0e 	bge	zero,r2,80011c4 <genMaze+0x458>
 8001158:	e12ca117 	ldw	r4,-19836(fp)
 800115c:	800260c0 	call	800260c <Ppeek>
 8001160:	1009883a 	mov	r4,r2
 8001164:	180b883a 	mov	r5,r3
 8001168:	2805883a 	mov	r2,r5
 800116c:	e16c9d17 	ldw	r5,-19852(fp)
 8001170:	1009883a 	mov	r4,r2
 8001174:	8004a580 	call	8004a58 <__mulsi3>
 8001178:	1021883a 	mov	r16,r2
 800117c:	e12ca117 	ldw	r4,-19836(fp)
 8001180:	800260c0 	call	800260c <Ppeek>
 8001184:	1009883a 	mov	r4,r2
 8001188:	180b883a 	mov	r5,r3
 800118c:	2005883a 	mov	r2,r4
 8001190:	10bfffc4 	addi	r2,r2,-1
 8001194:	8085883a 	add	r2,r16,r2
 8001198:	e0eca317 	ldw	r3,-19828(fp)
 800119c:	1085883a 	add	r2,r2,r2
 80011a0:	1085883a 	add	r2,r2,r2
 80011a4:	1885883a 	add	r2,r3,r2
 80011a8:	10c00017 	ldw	r3,0(r2)
 80011ac:	d0a00117 	ldw	r2,-32764(gp)
 80011b0:	1884703a 	and	r2,r3,r2
 80011b4:	1000031e 	bne	r2,zero,80011c4 <genMaze+0x458>
            push(neighbors, 3);
 80011b8:	014000c4 	movi	r5,3
 80011bc:	e12ca017 	ldw	r4,-19840(fp)
 80011c0:	80027700 	call	8002770 <push>
        
        if(!isEmpty(neighbors)){
 80011c4:	e12ca017 	ldw	r4,-19840(fp)
 80011c8:	80027400 	call	8002740 <isEmpty>
 80011cc:	1001571e 	bne	r2,zero,800172c <genMaze+0x9c0>
            next_cell_dir = neighbors->array[rand() % (neighbors->top + 1)];
 80011d0:	e0aca017 	ldw	r2,-19840(fp)
 80011d4:	14000217 	ldw	r16,8(r2)
 80011d8:	800569c0 	call	800569c <rand>
 80011dc:	1007883a 	mov	r3,r2
 80011e0:	e0aca017 	ldw	r2,-19840(fp)
 80011e4:	10800017 	ldw	r2,0(r2)
 80011e8:	10800044 	addi	r2,r2,1
 80011ec:	100b883a 	mov	r5,r2
 80011f0:	1809883a 	mov	r4,r3
 80011f4:	80049280 	call	8004928 <__modsi3>
 80011f8:	1085883a 	add	r2,r2,r2
 80011fc:	1085883a 	add	r2,r2,r2
 8001200:	8085883a 	add	r2,r16,r2
 8001204:	10800017 	ldw	r2,0(r2)
 8001208:	e0aca615 	stw	r2,-19816(fp)
            struct pair temp = Ppeek(m_stack);
 800120c:	e12ca117 	ldw	r4,-19836(fp)
 8001210:	800260c0 	call	800260c <Ppeek>
 8001214:	1009883a 	mov	r4,r2
 8001218:	180b883a 	mov	r5,r3
 800121c:	e13ff315 	stw	r4,-52(fp)
 8001220:	e17ff415 	stw	r5,-48(fp)
            switch (next_cell_dir){
 8001224:	e0aca617 	ldw	r2,-19816(fp)
 8001228:	10c00060 	cmpeqi	r3,r2,1
 800122c:	1800551e 	bne	r3,zero,8001384 <genMaze+0x618>
 8001230:	10c00088 	cmpgei	r3,r2,2
 8001234:	1800021e 	bne	r3,zero,8001240 <genMaze+0x4d4>
 8001238:	10000626 	beq	r2,zero,8001254 <genMaze+0x4e8>
 800123c:	00013706 	br	800171c <genMaze+0x9b0>
 8001240:	10c000a0 	cmpeqi	r3,r2,2
 8001244:	18009c1e 	bne	r3,zero,80014b8 <genMaze+0x74c>
 8001248:	108000e0 	cmpeqi	r2,r2,3
 800124c:	1000e61e 	bne	r2,zero,80015e8 <genMaze+0x87c>
 8001250:	00013206 	br	800171c <genMaze+0x9b0>
            case 0:
                m_maze[offset(0,-1)] |= VISITED | PATH_S;
 8001254:	e12ca117 	ldw	r4,-19836(fp)
 8001258:	800260c0 	call	800260c <Ppeek>
 800125c:	1009883a 	mov	r4,r2
 8001260:	180b883a 	mov	r5,r3
 8001264:	2825883a 	mov	r18,r5
 8001268:	90bfffc4 	addi	r2,r18,-1
 800126c:	e16c9d17 	ldw	r5,-19852(fp)
 8001270:	1009883a 	mov	r4,r2
 8001274:	8004a580 	call	8004a58 <__mulsi3>
 8001278:	1021883a 	mov	r16,r2
 800127c:	e12ca117 	ldw	r4,-19836(fp)
 8001280:	800260c0 	call	800260c <Ppeek>
 8001284:	1009883a 	mov	r4,r2
 8001288:	180b883a 	mov	r5,r3
 800128c:	2023883a 	mov	r17,r4
 8001290:	8461883a 	add	r16,r16,r17
 8001294:	90bfffc4 	addi	r2,r18,-1
 8001298:	e16c9d17 	ldw	r5,-19852(fp)
 800129c:	1009883a 	mov	r4,r2
 80012a0:	8004a580 	call	8004a58 <__mulsi3>
 80012a4:	1445883a 	add	r2,r2,r17
 80012a8:	e0eca317 	ldw	r3,-19828(fp)
 80012ac:	1085883a 	add	r2,r2,r2
 80012b0:	1085883a 	add	r2,r2,r2
 80012b4:	1885883a 	add	r2,r3,r2
 80012b8:	10c00017 	ldw	r3,0(r2)
 80012bc:	d1200117 	ldw	r4,-32764(gp)
 80012c0:	d0a00217 	ldw	r2,-32760(gp)
 80012c4:	2084b03a 	or	r2,r4,r2
 80012c8:	1886b03a 	or	r3,r3,r2
 80012cc:	e12ca317 	ldw	r4,-19828(fp)
 80012d0:	8405883a 	add	r2,r16,r16
 80012d4:	1085883a 	add	r2,r2,r2
 80012d8:	2085883a 	add	r2,r4,r2
 80012dc:	10c00015 	stw	r3,0(r2)
                m_maze[offset(0,0)] |= PATH_N;
 80012e0:	e12ca117 	ldw	r4,-19836(fp)
 80012e4:	800260c0 	call	800260c <Ppeek>
 80012e8:	1009883a 	mov	r4,r2
 80012ec:	180b883a 	mov	r5,r3
 80012f0:	2825883a 	mov	r18,r5
 80012f4:	e16c9d17 	ldw	r5,-19852(fp)
 80012f8:	9009883a 	mov	r4,r18
 80012fc:	8004a580 	call	8004a58 <__mulsi3>
 8001300:	1021883a 	mov	r16,r2
 8001304:	e12ca117 	ldw	r4,-19836(fp)
 8001308:	800260c0 	call	800260c <Ppeek>
 800130c:	1009883a 	mov	r4,r2
 8001310:	180b883a 	mov	r5,r3
 8001314:	2023883a 	mov	r17,r4
 8001318:	8461883a 	add	r16,r16,r17
 800131c:	e16c9d17 	ldw	r5,-19852(fp)
 8001320:	9009883a 	mov	r4,r18
 8001324:	8004a580 	call	8004a58 <__mulsi3>
 8001328:	1445883a 	add	r2,r2,r17
 800132c:	e0eca317 	ldw	r3,-19828(fp)
 8001330:	1085883a 	add	r2,r2,r2
 8001334:	1085883a 	add	r2,r2,r2
 8001338:	1885883a 	add	r2,r3,r2
 800133c:	10c00017 	ldw	r3,0(r2)
 8001340:	d0a00317 	ldw	r2,-32756(gp)
 8001344:	1886b03a 	or	r3,r3,r2
 8001348:	e12ca317 	ldw	r4,-19828(fp)
 800134c:	8405883a 	add	r2,r16,r16
 8001350:	1085883a 	add	r2,r2,r2
 8001354:	2085883a 	add	r2,r4,r2
 8001358:	10c00015 	stw	r3,0(r2)
                Ppush(m_stack, (struct pair) {temp.first + 0, temp.second -1});
 800135c:	e0bff317 	ldw	r2,-52(fp)
 8001360:	e0acaf15 	stw	r2,-19780(fp)
 8001364:	e0bff417 	ldw	r2,-48(fp)
 8001368:	10bfffc4 	addi	r2,r2,-1
 800136c:	e0acb015 	stw	r2,-19776(fp)
 8001370:	e16caf17 	ldw	r5,-19780(fp)
 8001374:	e1acb017 	ldw	r6,-19776(fp)
 8001378:	e12ca117 	ldw	r4,-19836(fp)
 800137c:	80025000 	call	8002500 <Ppush>
                break;
 8001380:	0000e606 	br	800171c <genMaze+0x9b0>
            case 1:
                m_maze[offset(1,0)] |= VISITED | PATH_W;
 8001384:	e12ca117 	ldw	r4,-19836(fp)
 8001388:	800260c0 	call	800260c <Ppeek>
 800138c:	1009883a 	mov	r4,r2
 8001390:	180b883a 	mov	r5,r3
 8001394:	2825883a 	mov	r18,r5
 8001398:	e16c9d17 	ldw	r5,-19852(fp)
 800139c:	9009883a 	mov	r4,r18
 80013a0:	8004a580 	call	8004a58 <__mulsi3>
 80013a4:	1021883a 	mov	r16,r2
 80013a8:	e12ca117 	ldw	r4,-19836(fp)
 80013ac:	800260c0 	call	800260c <Ppeek>
 80013b0:	1009883a 	mov	r4,r2
 80013b4:	180b883a 	mov	r5,r3
 80013b8:	2023883a 	mov	r17,r4
 80013bc:	88800044 	addi	r2,r17,1
 80013c0:	80a1883a 	add	r16,r16,r2
 80013c4:	e16c9d17 	ldw	r5,-19852(fp)
 80013c8:	9009883a 	mov	r4,r18
 80013cc:	8004a580 	call	8004a58 <__mulsi3>
 80013d0:	1007883a 	mov	r3,r2
 80013d4:	88800044 	addi	r2,r17,1
 80013d8:	1885883a 	add	r2,r3,r2
 80013dc:	e0eca317 	ldw	r3,-19828(fp)
 80013e0:	1085883a 	add	r2,r2,r2
 80013e4:	1085883a 	add	r2,r2,r2
 80013e8:	1885883a 	add	r2,r3,r2
 80013ec:	10c00017 	ldw	r3,0(r2)
 80013f0:	d1200117 	ldw	r4,-32764(gp)
 80013f4:	d0a00417 	ldw	r2,-32752(gp)
 80013f8:	2084b03a 	or	r2,r4,r2
 80013fc:	1886b03a 	or	r3,r3,r2
 8001400:	e12ca317 	ldw	r4,-19828(fp)
 8001404:	8405883a 	add	r2,r16,r16
 8001408:	1085883a 	add	r2,r2,r2
 800140c:	2085883a 	add	r2,r4,r2
 8001410:	10c00015 	stw	r3,0(r2)
                m_maze[offset(0,0)] |= PATH_E;
 8001414:	e12ca117 	ldw	r4,-19836(fp)
 8001418:	800260c0 	call	800260c <Ppeek>
 800141c:	1009883a 	mov	r4,r2
 8001420:	180b883a 	mov	r5,r3
 8001424:	2825883a 	mov	r18,r5
 8001428:	e16c9d17 	ldw	r5,-19852(fp)
 800142c:	9009883a 	mov	r4,r18
 8001430:	8004a580 	call	8004a58 <__mulsi3>
 8001434:	1021883a 	mov	r16,r2
 8001438:	e12ca117 	ldw	r4,-19836(fp)
 800143c:	800260c0 	call	800260c <Ppeek>
 8001440:	1009883a 	mov	r4,r2
 8001444:	180b883a 	mov	r5,r3
 8001448:	2023883a 	mov	r17,r4
 800144c:	8461883a 	add	r16,r16,r17
 8001450:	e16c9d17 	ldw	r5,-19852(fp)
 8001454:	9009883a 	mov	r4,r18
 8001458:	8004a580 	call	8004a58 <__mulsi3>
 800145c:	1445883a 	add	r2,r2,r17
 8001460:	e0eca317 	ldw	r3,-19828(fp)
 8001464:	1085883a 	add	r2,r2,r2
 8001468:	1085883a 	add	r2,r2,r2
 800146c:	1885883a 	add	r2,r3,r2
 8001470:	10c00017 	ldw	r3,0(r2)
 8001474:	d0a00517 	ldw	r2,-32748(gp)
 8001478:	1886b03a 	or	r3,r3,r2
 800147c:	e12ca317 	ldw	r4,-19828(fp)
 8001480:	8405883a 	add	r2,r16,r16
 8001484:	1085883a 	add	r2,r2,r2
 8001488:	2085883a 	add	r2,r4,r2
 800148c:	10c00015 	stw	r3,0(r2)
                Ppush(m_stack, (struct pair){temp.first + 1, temp.second -0});
 8001490:	e0bff317 	ldw	r2,-52(fp)
 8001494:	10800044 	addi	r2,r2,1
 8001498:	e0acad15 	stw	r2,-19788(fp)
 800149c:	e0bff417 	ldw	r2,-48(fp)
 80014a0:	e0acae15 	stw	r2,-19784(fp)
 80014a4:	e16cad17 	ldw	r5,-19788(fp)
 80014a8:	e1acae17 	ldw	r6,-19784(fp)
 80014ac:	e12ca117 	ldw	r4,-19836(fp)
 80014b0:	80025000 	call	8002500 <Ppush>
                break;
 80014b4:	00009906 	br	800171c <genMaze+0x9b0>
            case 2:
                m_maze[offset(0,1)] |= VISITED | PATH_N;
 80014b8:	e12ca117 	ldw	r4,-19836(fp)
 80014bc:	800260c0 	call	800260c <Ppeek>
 80014c0:	1009883a 	mov	r4,r2
 80014c4:	180b883a 	mov	r5,r3
 80014c8:	2825883a 	mov	r18,r5
 80014cc:	90800044 	addi	r2,r18,1
 80014d0:	e16c9d17 	ldw	r5,-19852(fp)
 80014d4:	1009883a 	mov	r4,r2
 80014d8:	8004a580 	call	8004a58 <__mulsi3>
 80014dc:	1021883a 	mov	r16,r2
 80014e0:	e12ca117 	ldw	r4,-19836(fp)
 80014e4:	800260c0 	call	800260c <Ppeek>
 80014e8:	1009883a 	mov	r4,r2
 80014ec:	180b883a 	mov	r5,r3
 80014f0:	2023883a 	mov	r17,r4
 80014f4:	8461883a 	add	r16,r16,r17
 80014f8:	90800044 	addi	r2,r18,1
 80014fc:	e16c9d17 	ldw	r5,-19852(fp)
 8001500:	1009883a 	mov	r4,r2
 8001504:	8004a580 	call	8004a58 <__mulsi3>
 8001508:	1445883a 	add	r2,r2,r17
 800150c:	e0eca317 	ldw	r3,-19828(fp)
 8001510:	1085883a 	add	r2,r2,r2
 8001514:	1085883a 	add	r2,r2,r2
 8001518:	1885883a 	add	r2,r3,r2
 800151c:	10c00017 	ldw	r3,0(r2)
 8001520:	d1200117 	ldw	r4,-32764(gp)
 8001524:	d0a00317 	ldw	r2,-32756(gp)
 8001528:	2084b03a 	or	r2,r4,r2
 800152c:	1886b03a 	or	r3,r3,r2
 8001530:	e12ca317 	ldw	r4,-19828(fp)
 8001534:	8405883a 	add	r2,r16,r16
 8001538:	1085883a 	add	r2,r2,r2
 800153c:	2085883a 	add	r2,r4,r2
 8001540:	10c00015 	stw	r3,0(r2)
                m_maze[offset(0,0)] |= PATH_S;
 8001544:	e12ca117 	ldw	r4,-19836(fp)
 8001548:	800260c0 	call	800260c <Ppeek>
 800154c:	1009883a 	mov	r4,r2
 8001550:	180b883a 	mov	r5,r3
 8001554:	2825883a 	mov	r18,r5
 8001558:	e16c9d17 	ldw	r5,-19852(fp)
 800155c:	9009883a 	mov	r4,r18
 8001560:	8004a580 	call	8004a58 <__mulsi3>
 8001564:	1021883a 	mov	r16,r2
 8001568:	e12ca117 	ldw	r4,-19836(fp)
 800156c:	800260c0 	call	800260c <Ppeek>
 8001570:	1009883a 	mov	r4,r2
 8001574:	180b883a 	mov	r5,r3
 8001578:	2023883a 	mov	r17,r4
 800157c:	8461883a 	add	r16,r16,r17
 8001580:	e16c9d17 	ldw	r5,-19852(fp)
 8001584:	9009883a 	mov	r4,r18
 8001588:	8004a580 	call	8004a58 <__mulsi3>
 800158c:	1445883a 	add	r2,r2,r17
 8001590:	e0eca317 	ldw	r3,-19828(fp)
 8001594:	1085883a 	add	r2,r2,r2
 8001598:	1085883a 	add	r2,r2,r2
 800159c:	1885883a 	add	r2,r3,r2
 80015a0:	10c00017 	ldw	r3,0(r2)
 80015a4:	d0a00217 	ldw	r2,-32760(gp)
 80015a8:	1886b03a 	or	r3,r3,r2
 80015ac:	e12ca317 	ldw	r4,-19828(fp)
 80015b0:	8405883a 	add	r2,r16,r16
 80015b4:	1085883a 	add	r2,r2,r2
 80015b8:	2085883a 	add	r2,r4,r2
 80015bc:	10c00015 	stw	r3,0(r2)
                Ppush(m_stack, (struct pair){temp.first + 0, temp.second +1});
 80015c0:	e0bff317 	ldw	r2,-52(fp)
 80015c4:	e0acab15 	stw	r2,-19796(fp)
 80015c8:	e0bff417 	ldw	r2,-48(fp)
 80015cc:	10800044 	addi	r2,r2,1
 80015d0:	e0acac15 	stw	r2,-19792(fp)
 80015d4:	e16cab17 	ldw	r5,-19796(fp)
 80015d8:	e1acac17 	ldw	r6,-19792(fp)
 80015dc:	e12ca117 	ldw	r4,-19836(fp)
 80015e0:	80025000 	call	8002500 <Ppush>
                break;
 80015e4:	00004d06 	br	800171c <genMaze+0x9b0>
            case 3:
                m_maze[offset(-1,0)] |= VISITED | PATH_E;
 80015e8:	e12ca117 	ldw	r4,-19836(fp)
 80015ec:	800260c0 	call	800260c <Ppeek>
 80015f0:	1009883a 	mov	r4,r2
 80015f4:	180b883a 	mov	r5,r3
 80015f8:	2825883a 	mov	r18,r5
 80015fc:	e16c9d17 	ldw	r5,-19852(fp)
 8001600:	9009883a 	mov	r4,r18
 8001604:	8004a580 	call	8004a58 <__mulsi3>
 8001608:	1021883a 	mov	r16,r2
 800160c:	e12ca117 	ldw	r4,-19836(fp)
 8001610:	800260c0 	call	800260c <Ppeek>
 8001614:	1009883a 	mov	r4,r2
 8001618:	180b883a 	mov	r5,r3
 800161c:	2023883a 	mov	r17,r4
 8001620:	88bfffc4 	addi	r2,r17,-1
 8001624:	80a1883a 	add	r16,r16,r2
 8001628:	e16c9d17 	ldw	r5,-19852(fp)
 800162c:	9009883a 	mov	r4,r18
 8001630:	8004a580 	call	8004a58 <__mulsi3>
 8001634:	1007883a 	mov	r3,r2
 8001638:	88bfffc4 	addi	r2,r17,-1
 800163c:	1885883a 	add	r2,r3,r2
 8001640:	e0eca317 	ldw	r3,-19828(fp)
 8001644:	1085883a 	add	r2,r2,r2
 8001648:	1085883a 	add	r2,r2,r2
 800164c:	1885883a 	add	r2,r3,r2
 8001650:	10c00017 	ldw	r3,0(r2)
 8001654:	d1200117 	ldw	r4,-32764(gp)
 8001658:	d0a00517 	ldw	r2,-32748(gp)
 800165c:	2084b03a 	or	r2,r4,r2
 8001660:	1886b03a 	or	r3,r3,r2
 8001664:	e12ca317 	ldw	r4,-19828(fp)
 8001668:	8405883a 	add	r2,r16,r16
 800166c:	1085883a 	add	r2,r2,r2
 8001670:	2085883a 	add	r2,r4,r2
 8001674:	10c00015 	stw	r3,0(r2)
                m_maze[offset(0,0)] |= PATH_W;
 8001678:	e12ca117 	ldw	r4,-19836(fp)
 800167c:	800260c0 	call	800260c <Ppeek>
 8001680:	1009883a 	mov	r4,r2
 8001684:	180b883a 	mov	r5,r3
 8001688:	2825883a 	mov	r18,r5
 800168c:	e16c9d17 	ldw	r5,-19852(fp)
 8001690:	9009883a 	mov	r4,r18
 8001694:	8004a580 	call	8004a58 <__mulsi3>
 8001698:	1021883a 	mov	r16,r2
 800169c:	e12ca117 	ldw	r4,-19836(fp)
 80016a0:	800260c0 	call	800260c <Ppeek>
 80016a4:	1009883a 	mov	r4,r2
 80016a8:	180b883a 	mov	r5,r3
 80016ac:	2023883a 	mov	r17,r4
 80016b0:	8461883a 	add	r16,r16,r17
 80016b4:	e16c9d17 	ldw	r5,-19852(fp)
 80016b8:	9009883a 	mov	r4,r18
 80016bc:	8004a580 	call	8004a58 <__mulsi3>
 80016c0:	1445883a 	add	r2,r2,r17
 80016c4:	e0eca317 	ldw	r3,-19828(fp)
 80016c8:	1085883a 	add	r2,r2,r2
 80016cc:	1085883a 	add	r2,r2,r2
 80016d0:	1885883a 	add	r2,r3,r2
 80016d4:	10c00017 	ldw	r3,0(r2)
 80016d8:	d0a00417 	ldw	r2,-32752(gp)
 80016dc:	1886b03a 	or	r3,r3,r2
 80016e0:	e12ca317 	ldw	r4,-19828(fp)
 80016e4:	8405883a 	add	r2,r16,r16
 80016e8:	1085883a 	add	r2,r2,r2
 80016ec:	2085883a 	add	r2,r4,r2
 80016f0:	10c00015 	stw	r3,0(r2)
                Ppush(m_stack, (struct pair){temp.first - 1, temp.second +0});
 80016f4:	e0bff317 	ldw	r2,-52(fp)
 80016f8:	10bfffc4 	addi	r2,r2,-1
 80016fc:	e0aca915 	stw	r2,-19804(fp)
 8001700:	e0bff417 	ldw	r2,-48(fp)
 8001704:	e0acaa15 	stw	r2,-19800(fp)
 8001708:	e16ca917 	ldw	r5,-19804(fp)
 800170c:	e1acaa17 	ldw	r6,-19800(fp)
 8001710:	e12ca117 	ldw	r4,-19836(fp)
 8001714:	80025000 	call	8002500 <Ppush>
                break;
 8001718:	0001883a 	nop
            }
            visitedCells++;
 800171c:	e0ac8017 	ldw	r2,-19968(fp)
 8001720:	10800044 	addi	r2,r2,1
 8001724:	e0ac8015 	stw	r2,-19968(fp)
 8001728:	00000206 	br	8001734 <genMaze+0x9c8>
        }
        else
            Ppop(m_stack);
 800172c:	e12ca117 	ldw	r4,-19836(fp)
 8001730:	80025800 	call	8002580 <Ppop>
    printf("offset is %d \n", offset(0,0));
    visitedCells = 1;

    int next_cell_dir;

    while(visitedCells < mazeWidth*mazeHeight){
 8001734:	e16c9e17 	ldw	r5,-19848(fp)
 8001738:	e12c9d17 	ldw	r4,-19852(fp)
 800173c:	8004a580 	call	8004a58 <__mulsi3>
 8001740:	1007883a 	mov	r3,r2
 8001744:	e0ac8017 	ldw	r2,-19968(fp)
 8001748:	10fe1316 	blt	r2,r3,8000f98 <__alt_data_end+0xfc000f98>
        }
        else
            Ppop(m_stack);
   }
 
    for(int i = 0; i<120; i++){
 800174c:	e02c8115 	stw	zero,-19964(fp)
 8001750:	00001606 	br	80017ac <genMaze+0xa40>
        for(int j=0; j<160; j++){
 8001754:	e02c8215 	stw	zero,-19960(fp)
 8001758:	00000e06 	br	8001794 <genMaze+0xa28>
            maze_screen_buffer[i][j] = 1;
 800175c:	e0ac8117 	ldw	r2,-19964(fp)
 8001760:	01402804 	movi	r5,160
 8001764:	1009883a 	mov	r4,r2
 8001768:	8004a580 	call	8004a58 <__mulsi3>
 800176c:	e12c8004 	addi	r4,fp,-19968
 8001770:	2087883a 	add	r3,r4,r2
 8001774:	e0ac8217 	ldw	r2,-19960(fp)
 8001778:	1885883a 	add	r2,r3,r2
 800177c:	10803304 	addi	r2,r2,204
 8001780:	00c00044 	movi	r3,1
 8001784:	10c00005 	stb	r3,0(r2)
        else
            Ppop(m_stack);
   }
 
    for(int i = 0; i<120; i++){
        for(int j=0; j<160; j++){
 8001788:	e0ac8217 	ldw	r2,-19960(fp)
 800178c:	10800044 	addi	r2,r2,1
 8001790:	e0ac8215 	stw	r2,-19960(fp)
 8001794:	e0ac8217 	ldw	r2,-19960(fp)
 8001798:	10802810 	cmplti	r2,r2,160
 800179c:	103fef1e 	bne	r2,zero,800175c <__alt_data_end+0xfc00175c>
        }
        else
            Ppop(m_stack);
   }
 
    for(int i = 0; i<120; i++){
 80017a0:	e0ac8117 	ldw	r2,-19964(fp)
 80017a4:	10800044 	addi	r2,r2,1
 80017a8:	e0ac8115 	stw	r2,-19964(fp)
 80017ac:	e0ac8117 	ldw	r2,-19964(fp)
 80017b0:	10801e10 	cmplti	r2,r2,120
 80017b4:	103fe71e 	bne	r2,zero,8001754 <__alt_data_end+0xfc001754>
        for(int j=0; j<160; j++){
            maze_screen_buffer[i][j] = 1;
        }
    }

    for(int i = 0; i<19; i++){
 80017b8:	e02c8315 	stw	zero,-19956(fp)
 80017bc:	00001506 	br	8001814 <genMaze+0xaa8>
    	for(int j=0; j<160; j++){
 80017c0:	e02c8415 	stw	zero,-19952(fp)
 80017c4:	00000d06 	br	80017fc <genMaze+0xa90>
    		maze_screen_buffer[i][j] = 0;
 80017c8:	e0ac8317 	ldw	r2,-19956(fp)
 80017cc:	01402804 	movi	r5,160
 80017d0:	1009883a 	mov	r4,r2
 80017d4:	8004a580 	call	8004a58 <__mulsi3>
 80017d8:	e12c8004 	addi	r4,fp,-19968
 80017dc:	2087883a 	add	r3,r4,r2
 80017e0:	e0ac8417 	ldw	r2,-19952(fp)
 80017e4:	1885883a 	add	r2,r3,r2
 80017e8:	10803304 	addi	r2,r2,204
 80017ec:	10000005 	stb	zero,0(r2)
            maze_screen_buffer[i][j] = 1;
        }
    }

    for(int i = 0; i<19; i++){
    	for(int j=0; j<160; j++){
 80017f0:	e0ac8417 	ldw	r2,-19952(fp)
 80017f4:	10800044 	addi	r2,r2,1
 80017f8:	e0ac8415 	stw	r2,-19952(fp)
 80017fc:	e0ac8417 	ldw	r2,-19952(fp)
 8001800:	10802810 	cmplti	r2,r2,160
 8001804:	103ff01e 	bne	r2,zero,80017c8 <__alt_data_end+0xfc0017c8>
        for(int j=0; j<160; j++){
            maze_screen_buffer[i][j] = 1;
        }
    }

    for(int i = 0; i<19; i++){
 8001808:	e0ac8317 	ldw	r2,-19956(fp)
 800180c:	10800044 	addi	r2,r2,1
 8001810:	e0ac8315 	stw	r2,-19956(fp)
 8001814:	e0ac8317 	ldw	r2,-19956(fp)
 8001818:	108004d0 	cmplti	r2,r2,19
 800181c:	103fe81e 	bne	r2,zero,80017c0 <__alt_data_end+0xfc0017c0>
    	}
    }


    // To whoever is reading this... I'm sorry
    alt_u8 zero[16][8] = {{0,0,1,1,1,1,0,0},
 8001820:	00820074 	movhi	r2,2049
 8001824:	1092b044 	addi	r2,r2,19137
 8001828:	e0ff7304 	addi	r3,fp,-564
 800182c:	1009883a 	mov	r4,r2
 8001830:	00802004 	movi	r2,128
 8001834:	100d883a 	mov	r6,r2
 8001838:	200b883a 	mov	r5,r4
 800183c:	1809883a 	mov	r4,r3
 8001840:	80052b40 	call	80052b4 <memcpy>
						  {1,0,0,0,0,0,0,1},
						  {1,0,0,0,0,0,0,1},
						  {0,1,0,0,0,0,1,0},
						  {0,0,1,1,1,1,0,0}};

    alt_u8 one[16][8] =  {{0,0,1,1,0,0,0,0},
 8001844:	e0bf9304 	addi	r2,fp,-436
 8001848:	00c02004 	movi	r3,128
 800184c:	180d883a 	mov	r6,r3
 8001850:	000b883a 	mov	r5,zero
 8001854:	1009883a 	mov	r4,r2
 8001858:	80053fc0 	call	80053fc <memset>
 800185c:	00800044 	movi	r2,1
 8001860:	e0bf9385 	stb	r2,-434(fp)
 8001864:	00800044 	movi	r2,1
 8001868:	e0bf93c5 	stb	r2,-433(fp)
 800186c:	00800044 	movi	r2,1
 8001870:	e0bf9545 	stb	r2,-427(fp)
 8001874:	00800044 	movi	r2,1
 8001878:	e0bf9605 	stb	r2,-424(fp)
 800187c:	00800044 	movi	r2,1
 8001880:	e0bf9805 	stb	r2,-416(fp)
 8001884:	00800044 	movi	r2,1
 8001888:	e0bf9a05 	stb	r2,-408(fp)
 800188c:	00800044 	movi	r2,1
 8001890:	e0bf9c05 	stb	r2,-400(fp)
 8001894:	00800044 	movi	r2,1
 8001898:	e0bf9e05 	stb	r2,-392(fp)
 800189c:	00800044 	movi	r2,1
 80018a0:	e0bfa005 	stb	r2,-384(fp)
 80018a4:	00800044 	movi	r2,1
 80018a8:	e0bfa205 	stb	r2,-376(fp)
 80018ac:	00800044 	movi	r2,1
 80018b0:	e0bfa405 	stb	r2,-368(fp)
 80018b4:	00800044 	movi	r2,1
 80018b8:	e0bfa605 	stb	r2,-360(fp)
 80018bc:	00800044 	movi	r2,1
 80018c0:	e0bfa805 	stb	r2,-352(fp)
 80018c4:	00800044 	movi	r2,1
 80018c8:	e0bfaa05 	stb	r2,-344(fp)
 80018cc:	00800044 	movi	r2,1
 80018d0:	e0bfac05 	stb	r2,-336(fp)
 80018d4:	00800044 	movi	r2,1
 80018d8:	e0bfae05 	stb	r2,-328(fp)
 80018dc:	00800044 	movi	r2,1
 80018e0:	e0bfb005 	stb	r2,-320(fp)
 80018e4:	00800044 	movi	r2,1
 80018e8:	e0bfb185 	stb	r2,-314(fp)
 80018ec:	00800044 	movi	r2,1
 80018f0:	e0bfb1c5 	stb	r2,-313(fp)
 80018f4:	00800044 	movi	r2,1
 80018f8:	e0bfb205 	stb	r2,-312(fp)
 80018fc:	00800044 	movi	r2,1
 8001900:	e0bfb245 	stb	r2,-311(fp)
 8001904:	00800044 	movi	r2,1
 8001908:	e0bfb285 	stb	r2,-310(fp)
						  {0,0,0,0,1,0,0,0},
						  {0,0,0,0,1,0,0,0},
						  {0,0,0,0,1,0,0,0},
						  {0,0,1,1,1,1,1,0}};

    alt_u8 two[16][8] =  {{0,0,1,1,1,1,0,0},
 800190c:	e0bfb304 	addi	r2,fp,-308
 8001910:	00c02004 	movi	r3,128
 8001914:	180d883a 	mov	r6,r3
 8001918:	000b883a 	mov	r5,zero
 800191c:	1009883a 	mov	r4,r2
 8001920:	80053fc0 	call	80053fc <memset>
 8001924:	00800044 	movi	r2,1
 8001928:	e0bfb385 	stb	r2,-306(fp)
 800192c:	00800044 	movi	r2,1
 8001930:	e0bfb3c5 	stb	r2,-305(fp)
 8001934:	00800044 	movi	r2,1
 8001938:	e0bfb405 	stb	r2,-304(fp)
 800193c:	00800044 	movi	r2,1
 8001940:	e0bfb445 	stb	r2,-303(fp)
 8001944:	00800044 	movi	r2,1
 8001948:	e0bfb545 	stb	r2,-299(fp)
 800194c:	00800044 	movi	r2,1
 8001950:	e0bfb685 	stb	r2,-294(fp)
 8001954:	00800044 	movi	r2,1
 8001958:	e0bfb705 	stb	r2,-292(fp)
 800195c:	00800044 	movi	r2,1
 8001960:	e0bfb8c5 	stb	r2,-285(fp)
 8001964:	00800044 	movi	r2,1
 8001968:	e0bfb905 	stb	r2,-284(fp)
 800196c:	00800044 	movi	r2,1
 8001970:	e0bfbac5 	stb	r2,-277(fp)
 8001974:	00800044 	movi	r2,1
 8001978:	e0bfbcc5 	stb	r2,-269(fp)
 800197c:	00800044 	movi	r2,1
 8001980:	e0bfbe85 	stb	r2,-262(fp)
 8001984:	00800044 	movi	r2,1
 8001988:	e0bfc045 	stb	r2,-255(fp)
 800198c:	00800044 	movi	r2,1
 8001990:	e0bfc205 	stb	r2,-248(fp)
 8001994:	00800044 	movi	r2,1
 8001998:	e0bfc3c5 	stb	r2,-241(fp)
 800199c:	00800044 	movi	r2,1
 80019a0:	e0bfc585 	stb	r2,-234(fp)
 80019a4:	00800044 	movi	r2,1
 80019a8:	e0bfc745 	stb	r2,-227(fp)
 80019ac:	00800044 	movi	r2,1
 80019b0:	e0bfc905 	stb	r2,-220(fp)
 80019b4:	00800044 	movi	r2,1
 80019b8:	e0bfcb05 	stb	r2,-212(fp)
 80019bc:	00800044 	movi	r2,1
 80019c0:	e0bfcd05 	stb	r2,-204(fp)
 80019c4:	00800044 	movi	r2,1
 80019c8:	e0bfcf05 	stb	r2,-196(fp)
 80019cc:	00800044 	movi	r2,1
 80019d0:	e0bfd105 	stb	r2,-188(fp)
 80019d4:	00800044 	movi	r2,1
 80019d8:	e0bfd145 	stb	r2,-187(fp)
 80019dc:	00800044 	movi	r2,1
 80019e0:	e0bfd185 	stb	r2,-186(fp)
 80019e4:	00800044 	movi	r2,1
 80019e8:	e0bfd1c5 	stb	r2,-185(fp)
 80019ec:	00800044 	movi	r2,1
 80019f0:	e0bfd205 	stb	r2,-184(fp)
 80019f4:	00800044 	movi	r2,1
 80019f8:	e0bfd245 	stb	r2,-183(fp)
 80019fc:	00800044 	movi	r2,1
 8001a00:	e0bfd285 	stb	r2,-182(fp)
 8001a04:	00800044 	movi	r2,1
 8001a08:	e0bfd2c5 	stb	r2,-181(fp)
						  {1,0,0,0,0,0,0,0},
						  {1,0,0,0,0,0,0,0},
						  {1,0,0,0,0,0,0,0},
						  {1,1,1,1,1,1,1,1}};

    alt_u8 three[16][8] = {{0,0,1,1,1,1,0,0},
 8001a0c:	e0bfd304 	addi	r2,fp,-180
 8001a10:	00c02004 	movi	r3,128
 8001a14:	180d883a 	mov	r6,r3
 8001a18:	000b883a 	mov	r5,zero
 8001a1c:	1009883a 	mov	r4,r2
 8001a20:	80053fc0 	call	80053fc <memset>
 8001a24:	00800044 	movi	r2,1
 8001a28:	e0bfd385 	stb	r2,-178(fp)
 8001a2c:	00800044 	movi	r2,1
 8001a30:	e0bfd3c5 	stb	r2,-177(fp)
 8001a34:	00800044 	movi	r2,1
 8001a38:	e0bfd405 	stb	r2,-176(fp)
 8001a3c:	00800044 	movi	r2,1
 8001a40:	e0bfd445 	stb	r2,-175(fp)
 8001a44:	00800044 	movi	r2,1
 8001a48:	e0bfd545 	stb	r2,-171(fp)
 8001a4c:	00800044 	movi	r2,1
 8001a50:	e0bfd685 	stb	r2,-166(fp)
 8001a54:	00800044 	movi	r2,1
 8001a58:	e0bfd705 	stb	r2,-164(fp)
 8001a5c:	00800044 	movi	r2,1
 8001a60:	e0bfd8c5 	stb	r2,-157(fp)
 8001a64:	00800044 	movi	r2,1
 8001a68:	e0bfdac5 	stb	r2,-149(fp)
 8001a6c:	00800044 	movi	r2,1
 8001a70:	e0bfdcc5 	stb	r2,-141(fp)
 8001a74:	00800044 	movi	r2,1
 8001a78:	e0bfdec5 	stb	r2,-133(fp)
 8001a7c:	00800044 	movi	r2,1
 8001a80:	e0bfe085 	stb	r2,-126(fp)
 8001a84:	00800044 	movi	r2,1
 8001a88:	e0bfe145 	stb	r2,-123(fp)
 8001a8c:	00800044 	movi	r2,1
 8001a90:	e0bfe185 	stb	r2,-122(fp)
 8001a94:	00800044 	movi	r2,1
 8001a98:	e0bfe1c5 	stb	r2,-121(fp)
 8001a9c:	00800044 	movi	r2,1
 8001aa0:	e0bfe205 	stb	r2,-120(fp)
 8001aa4:	00800044 	movi	r2,1
 8001aa8:	e0bfe245 	stb	r2,-119(fp)
 8001aac:	00800044 	movi	r2,1
 8001ab0:	e0bfe485 	stb	r2,-110(fp)
 8001ab4:	00800044 	movi	r2,1
 8001ab8:	e0bfe6c5 	stb	r2,-101(fp)
 8001abc:	00800044 	movi	r2,1
 8001ac0:	e0bfe8c5 	stb	r2,-93(fp)
 8001ac4:	00800044 	movi	r2,1
 8001ac8:	e0bfeac5 	stb	r2,-85(fp)
 8001acc:	00800044 	movi	r2,1
 8001ad0:	e0bfecc5 	stb	r2,-77(fp)
 8001ad4:	00800044 	movi	r2,1
 8001ad8:	e0bfed05 	stb	r2,-76(fp)
 8001adc:	00800044 	movi	r2,1
 8001ae0:	e0bfeec5 	stb	r2,-69(fp)
 8001ae4:	00800044 	movi	r2,1
 8001ae8:	e0bfef45 	stb	r2,-67(fp)
 8001aec:	00800044 	movi	r2,1
 8001af0:	e0bff085 	stb	r2,-62(fp)
 8001af4:	00800044 	movi	r2,1
 8001af8:	e0bff185 	stb	r2,-58(fp)
 8001afc:	00800044 	movi	r2,1
 8001b00:	e0bff1c5 	stb	r2,-57(fp)
 8001b04:	00800044 	movi	r2,1
 8001b08:	e0bff205 	stb	r2,-56(fp)
 8001b0c:	00800044 	movi	r2,1
 8001b10:	e0bff245 	stb	r2,-55(fp)
   						  {0,0,0,0,0,0,0,1},
   						  {1,0,0,0,0,0,0,1},
   						  {0,1,0,0,0,0,1,0},
   						  {0,0,1,1,1,1,0,0}};
    // tank1 hardcode
    int t1scorepos = 60;
 8001b14:	00800f04 	movi	r2,60
 8001b18:	e0aca715 	stw	r2,-19812(fp)
    int t2scorepos = 90;
 8001b1c:	00801684 	movi	r2,90
 8001b20:	e0aca815 	stw	r2,-19808(fp)

    if(t1Score == 0){
 8001b24:	e0bff503 	ldbu	r2,-44(fp)
 8001b28:	1000281e 	bne	r2,zero,8001bcc <genMaze+0xe60>
    	for(int i = 2; i < 18; i++){
 8001b2c:	00800084 	movi	r2,2
 8001b30:	e0ac8515 	stw	r2,-19948(fp)
 8001b34:	00002206 	br	8001bc0 <genMaze+0xe54>
    		for(int j = t1scorepos; j<t1scorepos+8; j++){
 8001b38:	e0aca717 	ldw	r2,-19812(fp)
 8001b3c:	e0ac8615 	stw	r2,-19944(fp)
 8001b40:	00001806 	br	8001ba4 <genMaze+0xe38>
    			maze_screen_buffer[i][j] = zero[i-2][j-t1scorepos];
 8001b44:	e0ac8517 	ldw	r2,-19948(fp)
 8001b48:	10ffff84 	addi	r3,r2,-2
 8001b4c:	e12c8617 	ldw	r4,-19944(fp)
 8001b50:	e0aca717 	ldw	r2,-19812(fp)
 8001b54:	2085c83a 	sub	r2,r4,r2
 8001b58:	180690fa 	slli	r3,r3,3
 8001b5c:	e12c8004 	addi	r4,fp,-19968
 8001b60:	20c7883a 	add	r3,r4,r3
 8001b64:	1885883a 	add	r2,r3,r2
 8001b68:	1092f304 	addi	r2,r2,19404
 8001b6c:	14000003 	ldbu	r16,0(r2)
 8001b70:	e0ac8517 	ldw	r2,-19948(fp)
 8001b74:	01402804 	movi	r5,160
 8001b78:	1009883a 	mov	r4,r2
 8001b7c:	8004a580 	call	8004a58 <__mulsi3>
 8001b80:	e12c8004 	addi	r4,fp,-19968
 8001b84:	2087883a 	add	r3,r4,r2
 8001b88:	e0ac8617 	ldw	r2,-19944(fp)
 8001b8c:	1885883a 	add	r2,r3,r2
 8001b90:	10803304 	addi	r2,r2,204
 8001b94:	14000005 	stb	r16,0(r2)
    int t1scorepos = 60;
    int t2scorepos = 90;

    if(t1Score == 0){
    	for(int i = 2; i < 18; i++){
    		for(int j = t1scorepos; j<t1scorepos+8; j++){
 8001b98:	e0ac8617 	ldw	r2,-19944(fp)
 8001b9c:	10800044 	addi	r2,r2,1
 8001ba0:	e0ac8615 	stw	r2,-19944(fp)
 8001ba4:	e0aca717 	ldw	r2,-19812(fp)
 8001ba8:	10800204 	addi	r2,r2,8
 8001bac:	e0ec8617 	ldw	r3,-19944(fp)
 8001bb0:	18bfe416 	blt	r3,r2,8001b44 <__alt_data_end+0xfc001b44>
    // tank1 hardcode
    int t1scorepos = 60;
    int t2scorepos = 90;

    if(t1Score == 0){
    	for(int i = 2; i < 18; i++){
 8001bb4:	e0ac8517 	ldw	r2,-19948(fp)
 8001bb8:	10800044 	addi	r2,r2,1
 8001bbc:	e0ac8515 	stw	r2,-19948(fp)
 8001bc0:	e0ac8517 	ldw	r2,-19948(fp)
 8001bc4:	10800490 	cmplti	r2,r2,18
 8001bc8:	103fdb1e 	bne	r2,zero,8001b38 <__alt_data_end+0xfc001b38>
    			maze_screen_buffer[i][j] = zero[i-2][j-t1scorepos];
    		}
    	}
    }

    if(t1Score == 1){
 8001bcc:	e0bff503 	ldbu	r2,-44(fp)
 8001bd0:	10800058 	cmpnei	r2,r2,1
 8001bd4:	1000281e 	bne	r2,zero,8001c78 <genMaze+0xf0c>
    	for(int i = 2; i < 18; i++){
 8001bd8:	00800084 	movi	r2,2
 8001bdc:	e0ac8715 	stw	r2,-19940(fp)
 8001be0:	00002206 	br	8001c6c <genMaze+0xf00>
    		for(int j = t1scorepos; j<t1scorepos+8; j++){
 8001be4:	e0aca717 	ldw	r2,-19812(fp)
 8001be8:	e0ac8815 	stw	r2,-19936(fp)
 8001bec:	00001806 	br	8001c50 <genMaze+0xee4>
    			maze_screen_buffer[i][j] = one[i-2][j-t1scorepos];
 8001bf0:	e0ac8717 	ldw	r2,-19940(fp)
 8001bf4:	10ffff84 	addi	r3,r2,-2
 8001bf8:	e12c8817 	ldw	r4,-19936(fp)
 8001bfc:	e0aca717 	ldw	r2,-19812(fp)
 8001c00:	2085c83a 	sub	r2,r4,r2
 8001c04:	180690fa 	slli	r3,r3,3
 8001c08:	e12c8004 	addi	r4,fp,-19968
 8001c0c:	20c7883a 	add	r3,r4,r3
 8001c10:	1885883a 	add	r2,r3,r2
 8001c14:	10931304 	addi	r2,r2,19532
 8001c18:	14000003 	ldbu	r16,0(r2)
 8001c1c:	e0ac8717 	ldw	r2,-19940(fp)
 8001c20:	01402804 	movi	r5,160
 8001c24:	1009883a 	mov	r4,r2
 8001c28:	8004a580 	call	8004a58 <__mulsi3>
 8001c2c:	e12c8004 	addi	r4,fp,-19968
 8001c30:	2087883a 	add	r3,r4,r2
 8001c34:	e0ac8817 	ldw	r2,-19936(fp)
 8001c38:	1885883a 	add	r2,r3,r2
 8001c3c:	10803304 	addi	r2,r2,204
 8001c40:	14000005 	stb	r16,0(r2)
    	}
    }

    if(t1Score == 1){
    	for(int i = 2; i < 18; i++){
    		for(int j = t1scorepos; j<t1scorepos+8; j++){
 8001c44:	e0ac8817 	ldw	r2,-19936(fp)
 8001c48:	10800044 	addi	r2,r2,1
 8001c4c:	e0ac8815 	stw	r2,-19936(fp)
 8001c50:	e0aca717 	ldw	r2,-19812(fp)
 8001c54:	10800204 	addi	r2,r2,8
 8001c58:	e0ec8817 	ldw	r3,-19936(fp)
 8001c5c:	18bfe416 	blt	r3,r2,8001bf0 <__alt_data_end+0xfc001bf0>
    		}
    	}
    }

    if(t1Score == 1){
    	for(int i = 2; i < 18; i++){
 8001c60:	e0ac8717 	ldw	r2,-19940(fp)
 8001c64:	10800044 	addi	r2,r2,1
 8001c68:	e0ac8715 	stw	r2,-19940(fp)
 8001c6c:	e0ac8717 	ldw	r2,-19940(fp)
 8001c70:	10800490 	cmplti	r2,r2,18
 8001c74:	103fdb1e 	bne	r2,zero,8001be4 <__alt_data_end+0xfc001be4>
    			maze_screen_buffer[i][j] = one[i-2][j-t1scorepos];
    		}
    	}
    }

    if(t1Score == 2){
 8001c78:	e0bff503 	ldbu	r2,-44(fp)
 8001c7c:	10800098 	cmpnei	r2,r2,2
 8001c80:	1000281e 	bne	r2,zero,8001d24 <genMaze+0xfb8>
      	for(int i = 2; i < 18; i++){
 8001c84:	00800084 	movi	r2,2
 8001c88:	e0ac8915 	stw	r2,-19932(fp)
 8001c8c:	00002206 	br	8001d18 <genMaze+0xfac>
      		for(int j = t1scorepos; j<t1scorepos+8; j++){
 8001c90:	e0aca717 	ldw	r2,-19812(fp)
 8001c94:	e0ac8a15 	stw	r2,-19928(fp)
 8001c98:	00001806 	br	8001cfc <genMaze+0xf90>
      			maze_screen_buffer[i][j] = two[i-2][j-t1scorepos];
 8001c9c:	e0ac8917 	ldw	r2,-19932(fp)
 8001ca0:	10ffff84 	addi	r3,r2,-2
 8001ca4:	e12c8a17 	ldw	r4,-19928(fp)
 8001ca8:	e0aca717 	ldw	r2,-19812(fp)
 8001cac:	2085c83a 	sub	r2,r4,r2
 8001cb0:	180690fa 	slli	r3,r3,3
 8001cb4:	e12c8004 	addi	r4,fp,-19968
 8001cb8:	20c7883a 	add	r3,r4,r3
 8001cbc:	1885883a 	add	r2,r3,r2
 8001cc0:	10933304 	addi	r2,r2,19660
 8001cc4:	14000003 	ldbu	r16,0(r2)
 8001cc8:	e0ac8917 	ldw	r2,-19932(fp)
 8001ccc:	01402804 	movi	r5,160
 8001cd0:	1009883a 	mov	r4,r2
 8001cd4:	8004a580 	call	8004a58 <__mulsi3>
 8001cd8:	e12c8004 	addi	r4,fp,-19968
 8001cdc:	2087883a 	add	r3,r4,r2
 8001ce0:	e0ac8a17 	ldw	r2,-19928(fp)
 8001ce4:	1885883a 	add	r2,r3,r2
 8001ce8:	10803304 	addi	r2,r2,204
 8001cec:	14000005 	stb	r16,0(r2)
    	}
    }

    if(t1Score == 2){
      	for(int i = 2; i < 18; i++){
      		for(int j = t1scorepos; j<t1scorepos+8; j++){
 8001cf0:	e0ac8a17 	ldw	r2,-19928(fp)
 8001cf4:	10800044 	addi	r2,r2,1
 8001cf8:	e0ac8a15 	stw	r2,-19928(fp)
 8001cfc:	e0aca717 	ldw	r2,-19812(fp)
 8001d00:	10800204 	addi	r2,r2,8
 8001d04:	e0ec8a17 	ldw	r3,-19928(fp)
 8001d08:	18bfe416 	blt	r3,r2,8001c9c <__alt_data_end+0xfc001c9c>
    		}
    	}
    }

    if(t1Score == 2){
      	for(int i = 2; i < 18; i++){
 8001d0c:	e0ac8917 	ldw	r2,-19932(fp)
 8001d10:	10800044 	addi	r2,r2,1
 8001d14:	e0ac8915 	stw	r2,-19932(fp)
 8001d18:	e0ac8917 	ldw	r2,-19932(fp)
 8001d1c:	10800490 	cmplti	r2,r2,18
 8001d20:	103fdb1e 	bne	r2,zero,8001c90 <__alt_data_end+0xfc001c90>
      			maze_screen_buffer[i][j] = two[i-2][j-t1scorepos];
      		}
      	}
      }

      if(t1Score == 3){
 8001d24:	e0bff503 	ldbu	r2,-44(fp)
 8001d28:	108000d8 	cmpnei	r2,r2,3
 8001d2c:	1000281e 	bne	r2,zero,8001dd0 <genMaze+0x1064>
      	for(int i = 2; i < 18; i++){
 8001d30:	00800084 	movi	r2,2
 8001d34:	e0ac8b15 	stw	r2,-19924(fp)
 8001d38:	00002206 	br	8001dc4 <genMaze+0x1058>
      		for(int j = t1scorepos; j<t1scorepos+8; j++){
 8001d3c:	e0aca717 	ldw	r2,-19812(fp)
 8001d40:	e0ac8c15 	stw	r2,-19920(fp)
 8001d44:	00001806 	br	8001da8 <genMaze+0x103c>
      			maze_screen_buffer[i][j] = three[i-2][j-t1scorepos];
 8001d48:	e0ac8b17 	ldw	r2,-19924(fp)
 8001d4c:	10ffff84 	addi	r3,r2,-2
 8001d50:	e12c8c17 	ldw	r4,-19920(fp)
 8001d54:	e0aca717 	ldw	r2,-19812(fp)
 8001d58:	2085c83a 	sub	r2,r4,r2
 8001d5c:	180690fa 	slli	r3,r3,3
 8001d60:	e12c8004 	addi	r4,fp,-19968
 8001d64:	20c7883a 	add	r3,r4,r3
 8001d68:	1885883a 	add	r2,r3,r2
 8001d6c:	10935304 	addi	r2,r2,19788
 8001d70:	14000003 	ldbu	r16,0(r2)
 8001d74:	e0ac8b17 	ldw	r2,-19924(fp)
 8001d78:	01402804 	movi	r5,160
 8001d7c:	1009883a 	mov	r4,r2
 8001d80:	8004a580 	call	8004a58 <__mulsi3>
 8001d84:	e12c8004 	addi	r4,fp,-19968
 8001d88:	2087883a 	add	r3,r4,r2
 8001d8c:	e0ac8c17 	ldw	r2,-19920(fp)
 8001d90:	1885883a 	add	r2,r3,r2
 8001d94:	10803304 	addi	r2,r2,204
 8001d98:	14000005 	stb	r16,0(r2)
      	}
      }

      if(t1Score == 3){
      	for(int i = 2; i < 18; i++){
      		for(int j = t1scorepos; j<t1scorepos+8; j++){
 8001d9c:	e0ac8c17 	ldw	r2,-19920(fp)
 8001da0:	10800044 	addi	r2,r2,1
 8001da4:	e0ac8c15 	stw	r2,-19920(fp)
 8001da8:	e0aca717 	ldw	r2,-19812(fp)
 8001dac:	10800204 	addi	r2,r2,8
 8001db0:	e0ec8c17 	ldw	r3,-19920(fp)
 8001db4:	18bfe416 	blt	r3,r2,8001d48 <__alt_data_end+0xfc001d48>
      		}
      	}
      }

      if(t1Score == 3){
      	for(int i = 2; i < 18; i++){
 8001db8:	e0ac8b17 	ldw	r2,-19924(fp)
 8001dbc:	10800044 	addi	r2,r2,1
 8001dc0:	e0ac8b15 	stw	r2,-19924(fp)
 8001dc4:	e0ac8b17 	ldw	r2,-19924(fp)
 8001dc8:	10800490 	cmplti	r2,r2,18
 8001dcc:	103fdb1e 	bne	r2,zero,8001d3c <__alt_data_end+0xfc001d3c>
      	}
      }


    // tank 2 hardcode
      if(t2Score == 0){
 8001dd0:	e0bff603 	ldbu	r2,-40(fp)
 8001dd4:	1000281e 	bne	r2,zero,8001e78 <genMaze+0x110c>
      	for(int i = 2; i < 18; i++){
 8001dd8:	00800084 	movi	r2,2
 8001ddc:	e0ac8d15 	stw	r2,-19916(fp)
 8001de0:	00002206 	br	8001e6c <genMaze+0x1100>
      		for(int j = t2scorepos; j<t2scorepos+8; j++){
 8001de4:	e0aca817 	ldw	r2,-19808(fp)
 8001de8:	e0ac8e15 	stw	r2,-19912(fp)
 8001dec:	00001806 	br	8001e50 <genMaze+0x10e4>
      			maze_screen_buffer[i][j] = zero[i-2][j-t2scorepos];
 8001df0:	e0ac8d17 	ldw	r2,-19916(fp)
 8001df4:	10ffff84 	addi	r3,r2,-2
 8001df8:	e12c8e17 	ldw	r4,-19912(fp)
 8001dfc:	e0aca817 	ldw	r2,-19808(fp)
 8001e00:	2085c83a 	sub	r2,r4,r2
 8001e04:	180690fa 	slli	r3,r3,3
 8001e08:	e12c8004 	addi	r4,fp,-19968
 8001e0c:	20c7883a 	add	r3,r4,r3
 8001e10:	1885883a 	add	r2,r3,r2
 8001e14:	1092f304 	addi	r2,r2,19404
 8001e18:	14000003 	ldbu	r16,0(r2)
 8001e1c:	e0ac8d17 	ldw	r2,-19916(fp)
 8001e20:	01402804 	movi	r5,160
 8001e24:	1009883a 	mov	r4,r2
 8001e28:	8004a580 	call	8004a58 <__mulsi3>
 8001e2c:	e12c8004 	addi	r4,fp,-19968
 8001e30:	2087883a 	add	r3,r4,r2
 8001e34:	e0ac8e17 	ldw	r2,-19912(fp)
 8001e38:	1885883a 	add	r2,r3,r2
 8001e3c:	10803304 	addi	r2,r2,204
 8001e40:	14000005 	stb	r16,0(r2)


    // tank 2 hardcode
      if(t2Score == 0){
      	for(int i = 2; i < 18; i++){
      		for(int j = t2scorepos; j<t2scorepos+8; j++){
 8001e44:	e0ac8e17 	ldw	r2,-19912(fp)
 8001e48:	10800044 	addi	r2,r2,1
 8001e4c:	e0ac8e15 	stw	r2,-19912(fp)
 8001e50:	e0aca817 	ldw	r2,-19808(fp)
 8001e54:	10800204 	addi	r2,r2,8
 8001e58:	e0ec8e17 	ldw	r3,-19912(fp)
 8001e5c:	18bfe416 	blt	r3,r2,8001df0 <__alt_data_end+0xfc001df0>
      }


    // tank 2 hardcode
      if(t2Score == 0){
      	for(int i = 2; i < 18; i++){
 8001e60:	e0ac8d17 	ldw	r2,-19916(fp)
 8001e64:	10800044 	addi	r2,r2,1
 8001e68:	e0ac8d15 	stw	r2,-19916(fp)
 8001e6c:	e0ac8d17 	ldw	r2,-19916(fp)
 8001e70:	10800490 	cmplti	r2,r2,18
 8001e74:	103fdb1e 	bne	r2,zero,8001de4 <__alt_data_end+0xfc001de4>
      			maze_screen_buffer[i][j] = zero[i-2][j-t2scorepos];
      		}
      	}
      }

      if(t2Score == 1){
 8001e78:	e0bff603 	ldbu	r2,-40(fp)
 8001e7c:	10800058 	cmpnei	r2,r2,1
 8001e80:	1000281e 	bne	r2,zero,8001f24 <genMaze+0x11b8>
      	for(int i = 2; i < 18; i++){
 8001e84:	00800084 	movi	r2,2
 8001e88:	e0ac8f15 	stw	r2,-19908(fp)
 8001e8c:	00002206 	br	8001f18 <genMaze+0x11ac>
      		for(int j = t2scorepos; j<t2scorepos+8; j++){
 8001e90:	e0aca817 	ldw	r2,-19808(fp)
 8001e94:	e0ac9015 	stw	r2,-19904(fp)
 8001e98:	00001806 	br	8001efc <genMaze+0x1190>
      			maze_screen_buffer[i][j] = one[i-2][j-t2scorepos];
 8001e9c:	e0ac8f17 	ldw	r2,-19908(fp)
 8001ea0:	10ffff84 	addi	r3,r2,-2
 8001ea4:	e12c9017 	ldw	r4,-19904(fp)
 8001ea8:	e0aca817 	ldw	r2,-19808(fp)
 8001eac:	2085c83a 	sub	r2,r4,r2
 8001eb0:	180690fa 	slli	r3,r3,3
 8001eb4:	e12c8004 	addi	r4,fp,-19968
 8001eb8:	20c7883a 	add	r3,r4,r3
 8001ebc:	1885883a 	add	r2,r3,r2
 8001ec0:	10931304 	addi	r2,r2,19532
 8001ec4:	14000003 	ldbu	r16,0(r2)
 8001ec8:	e0ac8f17 	ldw	r2,-19908(fp)
 8001ecc:	01402804 	movi	r5,160
 8001ed0:	1009883a 	mov	r4,r2
 8001ed4:	8004a580 	call	8004a58 <__mulsi3>
 8001ed8:	e12c8004 	addi	r4,fp,-19968
 8001edc:	2087883a 	add	r3,r4,r2
 8001ee0:	e0ac9017 	ldw	r2,-19904(fp)
 8001ee4:	1885883a 	add	r2,r3,r2
 8001ee8:	10803304 	addi	r2,r2,204
 8001eec:	14000005 	stb	r16,0(r2)
      	}
      }

      if(t2Score == 1){
      	for(int i = 2; i < 18; i++){
      		for(int j = t2scorepos; j<t2scorepos+8; j++){
 8001ef0:	e0ac9017 	ldw	r2,-19904(fp)
 8001ef4:	10800044 	addi	r2,r2,1
 8001ef8:	e0ac9015 	stw	r2,-19904(fp)
 8001efc:	e0aca817 	ldw	r2,-19808(fp)
 8001f00:	10800204 	addi	r2,r2,8
 8001f04:	e0ec9017 	ldw	r3,-19904(fp)
 8001f08:	18bfe416 	blt	r3,r2,8001e9c <__alt_data_end+0xfc001e9c>
      		}
      	}
      }

      if(t2Score == 1){
      	for(int i = 2; i < 18; i++){
 8001f0c:	e0ac8f17 	ldw	r2,-19908(fp)
 8001f10:	10800044 	addi	r2,r2,1
 8001f14:	e0ac8f15 	stw	r2,-19908(fp)
 8001f18:	e0ac8f17 	ldw	r2,-19908(fp)
 8001f1c:	10800490 	cmplti	r2,r2,18
 8001f20:	103fdb1e 	bne	r2,zero,8001e90 <__alt_data_end+0xfc001e90>
      			maze_screen_buffer[i][j] = one[i-2][j-t2scorepos];
      		}
      	}
      }

      if(t2Score == 2){
 8001f24:	e0bff603 	ldbu	r2,-40(fp)
 8001f28:	10800098 	cmpnei	r2,r2,2
 8001f2c:	1000281e 	bne	r2,zero,8001fd0 <genMaze+0x1264>
        	for(int i = 2; i < 18; i++){
 8001f30:	00800084 	movi	r2,2
 8001f34:	e0ac9115 	stw	r2,-19900(fp)
 8001f38:	00002206 	br	8001fc4 <genMaze+0x1258>
        		for(int j = t2scorepos; j<t2scorepos+8; j++){
 8001f3c:	e0aca817 	ldw	r2,-19808(fp)
 8001f40:	e0ac9215 	stw	r2,-19896(fp)
 8001f44:	00001806 	br	8001fa8 <genMaze+0x123c>
        			maze_screen_buffer[i][j] = two[i-2][j-t2scorepos];
 8001f48:	e0ac9117 	ldw	r2,-19900(fp)
 8001f4c:	10ffff84 	addi	r3,r2,-2
 8001f50:	e12c9217 	ldw	r4,-19896(fp)
 8001f54:	e0aca817 	ldw	r2,-19808(fp)
 8001f58:	2085c83a 	sub	r2,r4,r2
 8001f5c:	180690fa 	slli	r3,r3,3
 8001f60:	e12c8004 	addi	r4,fp,-19968
 8001f64:	20c7883a 	add	r3,r4,r3
 8001f68:	1885883a 	add	r2,r3,r2
 8001f6c:	10933304 	addi	r2,r2,19660
 8001f70:	14000003 	ldbu	r16,0(r2)
 8001f74:	e0ac9117 	ldw	r2,-19900(fp)
 8001f78:	01402804 	movi	r5,160
 8001f7c:	1009883a 	mov	r4,r2
 8001f80:	8004a580 	call	8004a58 <__mulsi3>
 8001f84:	e12c8004 	addi	r4,fp,-19968
 8001f88:	2087883a 	add	r3,r4,r2
 8001f8c:	e0ac9217 	ldw	r2,-19896(fp)
 8001f90:	1885883a 	add	r2,r3,r2
 8001f94:	10803304 	addi	r2,r2,204
 8001f98:	14000005 	stb	r16,0(r2)
      	}
      }

      if(t2Score == 2){
        	for(int i = 2; i < 18; i++){
        		for(int j = t2scorepos; j<t2scorepos+8; j++){
 8001f9c:	e0ac9217 	ldw	r2,-19896(fp)
 8001fa0:	10800044 	addi	r2,r2,1
 8001fa4:	e0ac9215 	stw	r2,-19896(fp)
 8001fa8:	e0aca817 	ldw	r2,-19808(fp)
 8001fac:	10800204 	addi	r2,r2,8
 8001fb0:	e0ec9217 	ldw	r3,-19896(fp)
 8001fb4:	18bfe416 	blt	r3,r2,8001f48 <__alt_data_end+0xfc001f48>
      		}
      	}
      }

      if(t2Score == 2){
        	for(int i = 2; i < 18; i++){
 8001fb8:	e0ac9117 	ldw	r2,-19900(fp)
 8001fbc:	10800044 	addi	r2,r2,1
 8001fc0:	e0ac9115 	stw	r2,-19900(fp)
 8001fc4:	e0ac9117 	ldw	r2,-19900(fp)
 8001fc8:	10800490 	cmplti	r2,r2,18
 8001fcc:	103fdb1e 	bne	r2,zero,8001f3c <__alt_data_end+0xfc001f3c>
        			maze_screen_buffer[i][j] = two[i-2][j-t2scorepos];
        		}
        	}
        }

      if(t2Score == 3){
 8001fd0:	e0bff603 	ldbu	r2,-40(fp)
 8001fd4:	108000d8 	cmpnei	r2,r2,3
 8001fd8:	1000281e 	bne	r2,zero,800207c <genMaze+0x1310>
        	for(int i = 2; i < 18; i++){
 8001fdc:	00800084 	movi	r2,2
 8001fe0:	e0ac9315 	stw	r2,-19892(fp)
 8001fe4:	00002206 	br	8002070 <genMaze+0x1304>
        		for(int j = t2scorepos; j<t2scorepos+8; j++){
 8001fe8:	e0aca817 	ldw	r2,-19808(fp)
 8001fec:	e0ac9415 	stw	r2,-19888(fp)
 8001ff0:	00001806 	br	8002054 <genMaze+0x12e8>
        			maze_screen_buffer[i][j] = three[i-2][j-t2scorepos];
 8001ff4:	e0ac9317 	ldw	r2,-19892(fp)
 8001ff8:	10ffff84 	addi	r3,r2,-2
 8001ffc:	e12c9417 	ldw	r4,-19888(fp)
 8002000:	e0aca817 	ldw	r2,-19808(fp)
 8002004:	2085c83a 	sub	r2,r4,r2
 8002008:	180690fa 	slli	r3,r3,3
 800200c:	e12c8004 	addi	r4,fp,-19968
 8002010:	20c7883a 	add	r3,r4,r3
 8002014:	1885883a 	add	r2,r3,r2
 8002018:	10935304 	addi	r2,r2,19788
 800201c:	14000003 	ldbu	r16,0(r2)
 8002020:	e0ac9317 	ldw	r2,-19892(fp)
 8002024:	01402804 	movi	r5,160
 8002028:	1009883a 	mov	r4,r2
 800202c:	8004a580 	call	8004a58 <__mulsi3>
 8002030:	e12c8004 	addi	r4,fp,-19968
 8002034:	2087883a 	add	r3,r4,r2
 8002038:	e0ac9417 	ldw	r2,-19888(fp)
 800203c:	1885883a 	add	r2,r3,r2
 8002040:	10803304 	addi	r2,r2,204
 8002044:	14000005 	stb	r16,0(r2)
        	}
        }

      if(t2Score == 3){
        	for(int i = 2; i < 18; i++){
        		for(int j = t2scorepos; j<t2scorepos+8; j++){
 8002048:	e0ac9417 	ldw	r2,-19888(fp)
 800204c:	10800044 	addi	r2,r2,1
 8002050:	e0ac9415 	stw	r2,-19888(fp)
 8002054:	e0aca817 	ldw	r2,-19808(fp)
 8002058:	10800204 	addi	r2,r2,8
 800205c:	e0ec9417 	ldw	r3,-19888(fp)
 8002060:	18bfe416 	blt	r3,r2,8001ff4 <__alt_data_end+0xfc001ff4>
        		}
        	}
        }

      if(t2Score == 3){
        	for(int i = 2; i < 18; i++){
 8002064:	e0ac9317 	ldw	r2,-19892(fp)
 8002068:	10800044 	addi	r2,r2,1
 800206c:	e0ac9315 	stw	r2,-19892(fp)
 8002070:	e0ac9317 	ldw	r2,-19892(fp)
 8002074:	10800490 	cmplti	r2,r2,18
 8002078:	103fdb1e 	bne	r2,zero,8001fe8 <__alt_data_end+0xfc001fe8>
        		}
        	}
        }


    for(int x = 0; x<mazeWidth; x++){
 800207c:	e02c9515 	stw	zero,-19884(fp)
 8002080:	00008a06 	br	80022ac <genMaze+0x1540>
        for(int y = 0; y<mazeHeight; y++){
 8002084:	e02c9615 	stw	zero,-19880(fp)
 8002088:	00008206 	br	8002294 <genMaze+0x1528>
            for(int py = 0; py<pathWidth; py++){
 800208c:	e02c9715 	stw	zero,-19876(fp)
 8002090:	00002406 	br	8002124 <genMaze+0x13b8>
                for(int px = 0; px<pathWidth; px++){
 8002094:	e02c9815 	stw	zero,-19872(fp)
 8002098:	00001c06 	br	800210c <genMaze+0x13a0>
                    maze_screen_buffer[y*(pathWidth + 1) + py + 20][x*(pathWidth+1) + px] = 0;
 800209c:	e0ac9f17 	ldw	r2,-19844(fp)
 80020a0:	10800044 	addi	r2,r2,1
 80020a4:	e16c9617 	ldw	r5,-19880(fp)
 80020a8:	1009883a 	mov	r4,r2
 80020ac:	8004a580 	call	8004a58 <__mulsi3>
 80020b0:	1007883a 	mov	r3,r2
 80020b4:	e0ac9717 	ldw	r2,-19876(fp)
 80020b8:	1885883a 	add	r2,r3,r2
 80020bc:	14400504 	addi	r17,r2,20
 80020c0:	e0ac9f17 	ldw	r2,-19844(fp)
 80020c4:	10800044 	addi	r2,r2,1
 80020c8:	e16c9517 	ldw	r5,-19884(fp)
 80020cc:	1009883a 	mov	r4,r2
 80020d0:	8004a580 	call	8004a58 <__mulsi3>
 80020d4:	1007883a 	mov	r3,r2
 80020d8:	e0ac9817 	ldw	r2,-19872(fp)
 80020dc:	18a1883a 	add	r16,r3,r2
 80020e0:	01402804 	movi	r5,160
 80020e4:	8809883a 	mov	r4,r17
 80020e8:	8004a580 	call	8004a58 <__mulsi3>
 80020ec:	e0ec8004 	addi	r3,fp,-19968
 80020f0:	1885883a 	add	r2,r3,r2
 80020f4:	1405883a 	add	r2,r2,r16
 80020f8:	10803304 	addi	r2,r2,204
 80020fc:	10000005 	stb	zero,0(r2)


    for(int x = 0; x<mazeWidth; x++){
        for(int y = 0; y<mazeHeight; y++){
            for(int py = 0; py<pathWidth; py++){
                for(int px = 0; px<pathWidth; px++){
 8002100:	e0ac9817 	ldw	r2,-19872(fp)
 8002104:	10800044 	addi	r2,r2,1
 8002108:	e0ac9815 	stw	r2,-19872(fp)
 800210c:	e0ec9817 	ldw	r3,-19872(fp)
 8002110:	e0ac9f17 	ldw	r2,-19844(fp)
 8002114:	18bfe116 	blt	r3,r2,800209c <__alt_data_end+0xfc00209c>
        }


    for(int x = 0; x<mazeWidth; x++){
        for(int y = 0; y<mazeHeight; y++){
            for(int py = 0; py<pathWidth; py++){
 8002118:	e0ac9717 	ldw	r2,-19876(fp)
 800211c:	10800044 	addi	r2,r2,1
 8002120:	e0ac9715 	stw	r2,-19876(fp)
 8002124:	e0ec9717 	ldw	r3,-19876(fp)
 8002128:	e0ac9f17 	ldw	r2,-19844(fp)
 800212c:	18bfd916 	blt	r3,r2,8002094 <__alt_data_end+0xfc002094>
                for(int px = 0; px<pathWidth; px++){
                    maze_screen_buffer[y*(pathWidth + 1) + py + 20][x*(pathWidth+1) + px] = 0;
                }
            }
            for(int p = 0; p<pathWidth; p++){
 8002130:	e02c9915 	stw	zero,-19868(fp)
 8002134:	00005106 	br	800227c <genMaze+0x1510>
                if(m_maze[y*mazeWidth + x] & PATH_S)
 8002138:	e16c9d17 	ldw	r5,-19852(fp)
 800213c:	e12c9617 	ldw	r4,-19880(fp)
 8002140:	8004a580 	call	8004a58 <__mulsi3>
 8002144:	1007883a 	mov	r3,r2
 8002148:	e0ac9517 	ldw	r2,-19884(fp)
 800214c:	1885883a 	add	r2,r3,r2
 8002150:	e0eca317 	ldw	r3,-19828(fp)
 8002154:	1085883a 	add	r2,r2,r2
 8002158:	1085883a 	add	r2,r2,r2
 800215c:	1885883a 	add	r2,r3,r2
 8002160:	10c00017 	ldw	r3,0(r2)
 8002164:	d0a00217 	ldw	r2,-32760(gp)
 8002168:	1884703a 	and	r2,r3,r2
 800216c:	10001926 	beq	r2,zero,80021d4 <genMaze+0x1468>
                    maze_screen_buffer[y*(pathWidth+1)+pathWidth + 20][x*(pathWidth+1)+p] = 0;
 8002170:	e0ac9f17 	ldw	r2,-19844(fp)
 8002174:	10800044 	addi	r2,r2,1
 8002178:	e16c9617 	ldw	r5,-19880(fp)
 800217c:	1009883a 	mov	r4,r2
 8002180:	8004a580 	call	8004a58 <__mulsi3>
 8002184:	1007883a 	mov	r3,r2
 8002188:	e0ac9f17 	ldw	r2,-19844(fp)
 800218c:	1885883a 	add	r2,r3,r2
 8002190:	14400504 	addi	r17,r2,20
 8002194:	e0ac9f17 	ldw	r2,-19844(fp)
 8002198:	10800044 	addi	r2,r2,1
 800219c:	e16c9517 	ldw	r5,-19884(fp)
 80021a0:	1009883a 	mov	r4,r2
 80021a4:	8004a580 	call	8004a58 <__mulsi3>
 80021a8:	1007883a 	mov	r3,r2
 80021ac:	e0ac9917 	ldw	r2,-19868(fp)
 80021b0:	18a1883a 	add	r16,r3,r2
 80021b4:	01402804 	movi	r5,160
 80021b8:	8809883a 	mov	r4,r17
 80021bc:	8004a580 	call	8004a58 <__mulsi3>
 80021c0:	e12c8004 	addi	r4,fp,-19968
 80021c4:	2085883a 	add	r2,r4,r2
 80021c8:	1405883a 	add	r2,r2,r16
 80021cc:	10803304 	addi	r2,r2,204
 80021d0:	10000005 	stb	zero,0(r2)
                if(m_maze[y*mazeWidth + x] & PATH_E)
 80021d4:	e16c9d17 	ldw	r5,-19852(fp)
 80021d8:	e12c9617 	ldw	r4,-19880(fp)
 80021dc:	8004a580 	call	8004a58 <__mulsi3>
 80021e0:	1007883a 	mov	r3,r2
 80021e4:	e0ac9517 	ldw	r2,-19884(fp)
 80021e8:	1885883a 	add	r2,r3,r2
 80021ec:	e0eca317 	ldw	r3,-19828(fp)
 80021f0:	1085883a 	add	r2,r2,r2
 80021f4:	1085883a 	add	r2,r2,r2
 80021f8:	1885883a 	add	r2,r3,r2
 80021fc:	10c00017 	ldw	r3,0(r2)
 8002200:	d0a00517 	ldw	r2,-32748(gp)
 8002204:	1884703a 	and	r2,r3,r2
 8002208:	10001926 	beq	r2,zero,8002270 <genMaze+0x1504>
                    maze_screen_buffer[y*(pathWidth+1)+p + 20][x*(pathWidth+1)+pathWidth] = 0;
 800220c:	e0ac9f17 	ldw	r2,-19844(fp)
 8002210:	10800044 	addi	r2,r2,1
 8002214:	e16c9617 	ldw	r5,-19880(fp)
 8002218:	1009883a 	mov	r4,r2
 800221c:	8004a580 	call	8004a58 <__mulsi3>
 8002220:	1007883a 	mov	r3,r2
 8002224:	e0ac9917 	ldw	r2,-19868(fp)
 8002228:	1885883a 	add	r2,r3,r2
 800222c:	14400504 	addi	r17,r2,20
 8002230:	e0ac9f17 	ldw	r2,-19844(fp)
 8002234:	10800044 	addi	r2,r2,1
 8002238:	e16c9517 	ldw	r5,-19884(fp)
 800223c:	1009883a 	mov	r4,r2
 8002240:	8004a580 	call	8004a58 <__mulsi3>
 8002244:	1007883a 	mov	r3,r2
 8002248:	e0ac9f17 	ldw	r2,-19844(fp)
 800224c:	18a1883a 	add	r16,r3,r2
 8002250:	01402804 	movi	r5,160
 8002254:	8809883a 	mov	r4,r17
 8002258:	8004a580 	call	8004a58 <__mulsi3>
 800225c:	e0ec8004 	addi	r3,fp,-19968
 8002260:	1885883a 	add	r2,r3,r2
 8002264:	1405883a 	add	r2,r2,r16
 8002268:	10803304 	addi	r2,r2,204
 800226c:	10000005 	stb	zero,0(r2)
            for(int py = 0; py<pathWidth; py++){
                for(int px = 0; px<pathWidth; px++){
                    maze_screen_buffer[y*(pathWidth + 1) + py + 20][x*(pathWidth+1) + px] = 0;
                }
            }
            for(int p = 0; p<pathWidth; p++){
 8002270:	e0ac9917 	ldw	r2,-19868(fp)
 8002274:	10800044 	addi	r2,r2,1
 8002278:	e0ac9915 	stw	r2,-19868(fp)
 800227c:	e0ec9917 	ldw	r3,-19868(fp)
 8002280:	e0ac9f17 	ldw	r2,-19844(fp)
 8002284:	18bfac16 	blt	r3,r2,8002138 <__alt_data_end+0xfc002138>
        	}
        }


    for(int x = 0; x<mazeWidth; x++){
        for(int y = 0; y<mazeHeight; y++){
 8002288:	e0ac9617 	ldw	r2,-19880(fp)
 800228c:	10800044 	addi	r2,r2,1
 8002290:	e0ac9615 	stw	r2,-19880(fp)
 8002294:	e0ec9617 	ldw	r3,-19880(fp)
 8002298:	e0ac9e17 	ldw	r2,-19848(fp)
 800229c:	18bf7b16 	blt	r3,r2,800208c <__alt_data_end+0xfc00208c>
        		}
        	}
        }


    for(int x = 0; x<mazeWidth; x++){
 80022a0:	e0ac9517 	ldw	r2,-19884(fp)
 80022a4:	10800044 	addi	r2,r2,1
 80022a8:	e0ac9515 	stw	r2,-19884(fp)
 80022ac:	e0ec9517 	ldw	r3,-19884(fp)
 80022b0:	e0ac9d17 	ldw	r2,-19852(fp)
 80022b4:	18bf7316 	blt	r3,r2,8002084 <__alt_data_end+0xfc002084>
	struct MAZE{
		alt_u32 VRAM [120*5]; //Week 2 - extended VRAM
	};
	//you may have to change this line depending on your platform designer
	static volatile struct MAZE* vga_ctrl = 0x00001000;
	unsigned int tempVal = 0;
 80022b8:	e02c9a15 	stw	zero,-19864(fp)

	for (int fort=0; fort<120; fort++){
 80022bc:	e02c9b15 	stw	zero,-19860(fp)
 80022c0:	00004206 	br	80023cc <genMaze+0x1660>
		for(int nite=0 ; nite< 160; nite++){
 80022c4:	e02c9c15 	stw	zero,-19856(fp)
 80022c8:	00003a06 	br	80023b4 <genMaze+0x1648>
			tempVal += maze_screen_buffer[fort][nite];
 80022cc:	e0ac9b17 	ldw	r2,-19860(fp)
 80022d0:	01402804 	movi	r5,160
 80022d4:	1009883a 	mov	r4,r2
 80022d8:	8004a580 	call	8004a58 <__mulsi3>
 80022dc:	e12c8004 	addi	r4,fp,-19968
 80022e0:	2087883a 	add	r3,r4,r2
 80022e4:	e0ac9c17 	ldw	r2,-19856(fp)
 80022e8:	1885883a 	add	r2,r3,r2
 80022ec:	10803304 	addi	r2,r2,204
 80022f0:	10800003 	ldbu	r2,0(r2)
 80022f4:	10803fcc 	andi	r2,r2,255
 80022f8:	e0ec9a17 	ldw	r3,-19864(fp)
 80022fc:	1885883a 	add	r2,r3,r2
 8002300:	e0ac9a15 	stw	r2,-19864(fp)
			if((nite+1)%32 != 0){
 8002304:	e0ac9c17 	ldw	r2,-19856(fp)
 8002308:	10800044 	addi	r2,r2,1
 800230c:	108007cc 	andi	r2,r2,31
 8002310:	10000426 	beq	r2,zero,8002324 <genMaze+0x15b8>

				tempVal = tempVal << 1;
 8002314:	e0ac9a17 	ldw	r2,-19864(fp)
 8002318:	1085883a 	add	r2,r2,r2
 800231c:	e0ac9a15 	stw	r2,-19864(fp)
 8002320:	00002106 	br	80023a8 <genMaze+0x163c>
			}
			else if((nite+1)%32 == 0){
 8002324:	e0ac9c17 	ldw	r2,-19856(fp)
 8002328:	10800044 	addi	r2,r2,1
 800232c:	108007cc 	andi	r2,r2,31
 8002330:	10001d1e 	bne	r2,zero,80023a8 <genMaze+0x163c>
				printf("%d \n", fort*5+(int)((nite)/32));
 8002334:	01400144 	movi	r5,5
 8002338:	e12c9b17 	ldw	r4,-19860(fp)
 800233c:	8004a580 	call	8004a58 <__mulsi3>
 8002340:	1007883a 	mov	r3,r2
 8002344:	e0ac9c17 	ldw	r2,-19856(fp)
 8002348:	1000010e 	bge	r2,zero,8002350 <genMaze+0x15e4>
 800234c:	108007c4 	addi	r2,r2,31
 8002350:	1005d17a 	srai	r2,r2,5
 8002354:	1885883a 	add	r2,r3,r2
 8002358:	100b883a 	mov	r5,r2
 800235c:	01020074 	movhi	r4,2049
 8002360:	2112af04 	addi	r4,r4,19132
 8002364:	80055540 	call	8005554 <printf>
				vga_ctrl->VRAM[fort*5+(int)((nite)/32)] = tempVal;
 8002368:	d4200617 	ldw	r16,-32744(gp)
 800236c:	01400144 	movi	r5,5
 8002370:	e12c9b17 	ldw	r4,-19860(fp)
 8002374:	8004a580 	call	8004a58 <__mulsi3>
 8002378:	1007883a 	mov	r3,r2
 800237c:	e0ac9c17 	ldw	r2,-19856(fp)
 8002380:	1000010e 	bge	r2,zero,8002388 <genMaze+0x161c>
 8002384:	108007c4 	addi	r2,r2,31
 8002388:	1005d17a 	srai	r2,r2,5
 800238c:	1885883a 	add	r2,r3,r2
 8002390:	1085883a 	add	r2,r2,r2
 8002394:	1085883a 	add	r2,r2,r2
 8002398:	8085883a 	add	r2,r16,r2
 800239c:	e0ec9a17 	ldw	r3,-19864(fp)
 80023a0:	10c00015 	stw	r3,0(r2)
				tempVal = 0;
 80023a4:	e02c9a15 	stw	zero,-19864(fp)
	//you may have to change this line depending on your platform designer
	static volatile struct MAZE* vga_ctrl = 0x00001000;
	unsigned int tempVal = 0;

	for (int fort=0; fort<120; fort++){
		for(int nite=0 ; nite< 160; nite++){
 80023a8:	e0ac9c17 	ldw	r2,-19856(fp)
 80023ac:	10800044 	addi	r2,r2,1
 80023b0:	e0ac9c15 	stw	r2,-19856(fp)
 80023b4:	e0ac9c17 	ldw	r2,-19856(fp)
 80023b8:	10802810 	cmplti	r2,r2,160
 80023bc:	103fc31e 	bne	r2,zero,80022cc <__alt_data_end+0xfc0022cc>
	};
	//you may have to change this line depending on your platform designer
	static volatile struct MAZE* vga_ctrl = 0x00001000;
	unsigned int tempVal = 0;

	for (int fort=0; fort<120; fort++){
 80023c0:	e0ac9b17 	ldw	r2,-19860(fp)
 80023c4:	10800044 	addi	r2,r2,1
 80023c8:	e0ac9b15 	stw	r2,-19860(fp)
 80023cc:	e0ac9b17 	ldw	r2,-19860(fp)
 80023d0:	10801e10 	cmplti	r2,r2,120
 80023d4:	103fbb1e 	bne	r2,zero,80022c4 <__alt_data_end+0xfc0022c4>
 80023d8:	e6fff717 	ldw	sp,-36(fp)
//        printf("%d \n", i);
//        for(int j=0; j<160; j++){
//            printf("%d", maze_screen_buffer[i][j]);
//        }
//    }
}
 80023dc:	0001883a 	nop
 80023e0:	e6fff804 	addi	sp,fp,-32
 80023e4:	dfc00917 	ldw	ra,36(sp)
 80023e8:	df000817 	ldw	fp,32(sp)
 80023ec:	ddc00717 	ldw	r23,28(sp)
 80023f0:	dd800617 	ldw	r22,24(sp)
 80023f4:	dd400517 	ldw	r21,20(sp)
 80023f8:	dd000417 	ldw	r20,16(sp)
 80023fc:	dcc00317 	ldw	r19,12(sp)
 8002400:	dc800217 	ldw	r18,8(sp)
 8002404:	dc400117 	ldw	r17,4(sp)
 8002408:	dc000017 	ldw	r16,0(sp)
 800240c:	dec00a04 	addi	sp,sp,40
 8002410:	f800283a 	ret

08002414 <createPStack>:
 8002414:	defffc04 	addi	sp,sp,-16
 8002418:	dfc00315 	stw	ra,12(sp)
 800241c:	df000215 	stw	fp,8(sp)
 8002420:	df000204 	addi	fp,sp,8
 8002424:	e13fff15 	stw	r4,-4(fp)
 8002428:	01000204 	movi	r4,8
 800242c:	8004a800 	call	8004a80 <malloc>
 8002430:	e0bffe15 	stw	r2,-8(fp)
 8002434:	e0bfff17 	ldw	r2,-4(fp)
 8002438:	1085883a 	add	r2,r2,r2
 800243c:	1007883a 	mov	r3,r2
 8002440:	e0bffe17 	ldw	r2,-8(fp)
 8002444:	10c00115 	stw	r3,4(r2)
 8002448:	e0bffe17 	ldw	r2,-8(fp)
 800244c:	00ffffc4 	movi	r3,-1
 8002450:	10c00015 	stw	r3,0(r2)
 8002454:	e0bffe17 	ldw	r2,-8(fp)
 8002458:	10800117 	ldw	r2,4(r2)
 800245c:	1085883a 	add	r2,r2,r2
 8002460:	1085883a 	add	r2,r2,r2
 8002464:	1009883a 	mov	r4,r2
 8002468:	8004a800 	call	8004a80 <malloc>
 800246c:	1007883a 	mov	r3,r2
 8002470:	e0bffe17 	ldw	r2,-8(fp)
 8002474:	10c00215 	stw	r3,8(r2)
 8002478:	e0bffe17 	ldw	r2,-8(fp)
 800247c:	e037883a 	mov	sp,fp
 8002480:	dfc00117 	ldw	ra,4(sp)
 8002484:	df000017 	ldw	fp,0(sp)
 8002488:	dec00204 	addi	sp,sp,8
 800248c:	f800283a 	ret

08002490 <PisFull>:
 8002490:	defffe04 	addi	sp,sp,-8
 8002494:	df000115 	stw	fp,4(sp)
 8002498:	df000104 	addi	fp,sp,4
 800249c:	e13fff15 	stw	r4,-4(fp)
 80024a0:	e0bfff17 	ldw	r2,-4(fp)
 80024a4:	10800017 	ldw	r2,0(r2)
 80024a8:	1007883a 	mov	r3,r2
 80024ac:	e0bfff17 	ldw	r2,-4(fp)
 80024b0:	10800117 	ldw	r2,4(r2)
 80024b4:	10bfffc4 	addi	r2,r2,-1
 80024b8:	1885003a 	cmpeq	r2,r3,r2
 80024bc:	10803fcc 	andi	r2,r2,255
 80024c0:	e037883a 	mov	sp,fp
 80024c4:	df000017 	ldw	fp,0(sp)
 80024c8:	dec00104 	addi	sp,sp,4
 80024cc:	f800283a 	ret

080024d0 <PisEmpty>:
 80024d0:	defffe04 	addi	sp,sp,-8
 80024d4:	df000115 	stw	fp,4(sp)
 80024d8:	df000104 	addi	fp,sp,4
 80024dc:	e13fff15 	stw	r4,-4(fp)
 80024e0:	e0bfff17 	ldw	r2,-4(fp)
 80024e4:	10800017 	ldw	r2,0(r2)
 80024e8:	10bfffe0 	cmpeqi	r2,r2,-1
 80024ec:	10803fcc 	andi	r2,r2,255
 80024f0:	e037883a 	mov	sp,fp
 80024f4:	df000017 	ldw	fp,0(sp)
 80024f8:	dec00104 	addi	sp,sp,4
 80024fc:	f800283a 	ret

08002500 <Ppush>:
 8002500:	defffb04 	addi	sp,sp,-20
 8002504:	dfc00415 	stw	ra,16(sp)
 8002508:	df000315 	stw	fp,12(sp)
 800250c:	df000304 	addi	fp,sp,12
 8002510:	e13ffd15 	stw	r4,-12(fp)
 8002514:	e17ffe15 	stw	r5,-8(fp)
 8002518:	e1bfff15 	stw	r6,-4(fp)
 800251c:	e13ffd17 	ldw	r4,-12(fp)
 8002520:	80024900 	call	8002490 <PisFull>
 8002524:	1000101e 	bne	r2,zero,8002568 <Ppush+0x68>
 8002528:	e0bffd17 	ldw	r2,-12(fp)
 800252c:	10c00217 	ldw	r3,8(r2)
 8002530:	e0bffd17 	ldw	r2,-12(fp)
 8002534:	10800017 	ldw	r2,0(r2)
 8002538:	11000044 	addi	r4,r2,1
 800253c:	e0bffd17 	ldw	r2,-12(fp)
 8002540:	11000015 	stw	r4,0(r2)
 8002544:	e0bffd17 	ldw	r2,-12(fp)
 8002548:	10800017 	ldw	r2,0(r2)
 800254c:	100490fa 	slli	r2,r2,3
 8002550:	1885883a 	add	r2,r3,r2
 8002554:	e0fffe17 	ldw	r3,-8(fp)
 8002558:	10c00015 	stw	r3,0(r2)
 800255c:	e0ffff17 	ldw	r3,-4(fp)
 8002560:	10c00115 	stw	r3,4(r2)
 8002564:	00000106 	br	800256c <Ppush+0x6c>
 8002568:	0001883a 	nop
 800256c:	e037883a 	mov	sp,fp
 8002570:	dfc00117 	ldw	ra,4(sp)
 8002574:	df000017 	ldw	fp,0(sp)
 8002578:	dec00204 	addi	sp,sp,8
 800257c:	f800283a 	ret

08002580 <Ppop>:
 8002580:	defffb04 	addi	sp,sp,-20
 8002584:	dfc00415 	stw	ra,16(sp)
 8002588:	df000315 	stw	fp,12(sp)
 800258c:	dc400215 	stw	r17,8(sp)
 8002590:	dc000115 	stw	r16,4(sp)
 8002594:	df000304 	addi	fp,sp,12
 8002598:	e13ffd15 	stw	r4,-12(fp)
 800259c:	e13ffd17 	ldw	r4,-12(fp)
 80025a0:	80024d00 	call	80024d0 <PisEmpty>
 80025a4:	10000326 	beq	r2,zero,80025b4 <Ppop+0x34>
 80025a8:	0021883a 	mov	r16,zero
 80025ac:	0023883a 	mov	r17,zero
 80025b0:	00000b06 	br	80025e0 <Ppop+0x60>
 80025b4:	e0bffd17 	ldw	r2,-12(fp)
 80025b8:	10c00217 	ldw	r3,8(r2)
 80025bc:	e0bffd17 	ldw	r2,-12(fp)
 80025c0:	10800017 	ldw	r2,0(r2)
 80025c4:	117fffc4 	addi	r5,r2,-1
 80025c8:	e13ffd17 	ldw	r4,-12(fp)
 80025cc:	21400015 	stw	r5,0(r4)
 80025d0:	100490fa 	slli	r2,r2,3
 80025d4:	1885883a 	add	r2,r3,r2
 80025d8:	14000017 	ldw	r16,0(r2)
 80025dc:	14400117 	ldw	r17,4(r2)
 80025e0:	8007883a 	mov	r3,r16
 80025e4:	8809883a 	mov	r4,r17
 80025e8:	1805883a 	mov	r2,r3
 80025ec:	2007883a 	mov	r3,r4
 80025f0:	e6fffe04 	addi	sp,fp,-8
 80025f4:	dfc00317 	ldw	ra,12(sp)
 80025f8:	df000217 	ldw	fp,8(sp)
 80025fc:	dc400117 	ldw	r17,4(sp)
 8002600:	dc000017 	ldw	r16,0(sp)
 8002604:	dec00404 	addi	sp,sp,16
 8002608:	f800283a 	ret

0800260c <Ppeek>:
 800260c:	defffb04 	addi	sp,sp,-20
 8002610:	dfc00415 	stw	ra,16(sp)
 8002614:	df000315 	stw	fp,12(sp)
 8002618:	dc400215 	stw	r17,8(sp)
 800261c:	dc000115 	stw	r16,4(sp)
 8002620:	df000304 	addi	fp,sp,12
 8002624:	e13ffd15 	stw	r4,-12(fp)
 8002628:	e13ffd17 	ldw	r4,-12(fp)
 800262c:	80024d00 	call	80024d0 <PisEmpty>
 8002630:	10000326 	beq	r2,zero,8002640 <Ppeek+0x34>
 8002634:	0021883a 	mov	r16,zero
 8002638:	0023883a 	mov	r17,zero
 800263c:	00000806 	br	8002660 <Ppeek+0x54>
 8002640:	e0bffd17 	ldw	r2,-12(fp)
 8002644:	10c00217 	ldw	r3,8(r2)
 8002648:	e0bffd17 	ldw	r2,-12(fp)
 800264c:	10800017 	ldw	r2,0(r2)
 8002650:	100490fa 	slli	r2,r2,3
 8002654:	1885883a 	add	r2,r3,r2
 8002658:	14000017 	ldw	r16,0(r2)
 800265c:	14400117 	ldw	r17,4(r2)
 8002660:	8007883a 	mov	r3,r16
 8002664:	8809883a 	mov	r4,r17
 8002668:	1805883a 	mov	r2,r3
 800266c:	2007883a 	mov	r3,r4
 8002670:	e6fffe04 	addi	sp,fp,-8
 8002674:	dfc00317 	ldw	ra,12(sp)
 8002678:	df000217 	ldw	fp,8(sp)
 800267c:	dc400117 	ldw	r17,4(sp)
 8002680:	dc000017 	ldw	r16,0(sp)
 8002684:	dec00404 	addi	sp,sp,16
 8002688:	f800283a 	ret

0800268c <createStack>:
 800268c:	defffc04 	addi	sp,sp,-16
 8002690:	dfc00315 	stw	ra,12(sp)
 8002694:	df000215 	stw	fp,8(sp)
 8002698:	df000204 	addi	fp,sp,8
 800269c:	e13fff15 	stw	r4,-4(fp)
 80026a0:	01000304 	movi	r4,12
 80026a4:	8004a800 	call	8004a80 <malloc>
 80026a8:	e0bffe15 	stw	r2,-8(fp)
 80026ac:	e0bffe17 	ldw	r2,-8(fp)
 80026b0:	e0ffff17 	ldw	r3,-4(fp)
 80026b4:	10c00115 	stw	r3,4(r2)
 80026b8:	e0bffe17 	ldw	r2,-8(fp)
 80026bc:	00ffffc4 	movi	r3,-1
 80026c0:	10c00015 	stw	r3,0(r2)
 80026c4:	e0bffe17 	ldw	r2,-8(fp)
 80026c8:	10800117 	ldw	r2,4(r2)
 80026cc:	1085883a 	add	r2,r2,r2
 80026d0:	1085883a 	add	r2,r2,r2
 80026d4:	1009883a 	mov	r4,r2
 80026d8:	8004a800 	call	8004a80 <malloc>
 80026dc:	1007883a 	mov	r3,r2
 80026e0:	e0bffe17 	ldw	r2,-8(fp)
 80026e4:	10c00215 	stw	r3,8(r2)
 80026e8:	e0bffe17 	ldw	r2,-8(fp)
 80026ec:	e037883a 	mov	sp,fp
 80026f0:	dfc00117 	ldw	ra,4(sp)
 80026f4:	df000017 	ldw	fp,0(sp)
 80026f8:	dec00204 	addi	sp,sp,8
 80026fc:	f800283a 	ret

08002700 <isFull>:
 8002700:	defffe04 	addi	sp,sp,-8
 8002704:	df000115 	stw	fp,4(sp)
 8002708:	df000104 	addi	fp,sp,4
 800270c:	e13fff15 	stw	r4,-4(fp)
 8002710:	e0bfff17 	ldw	r2,-4(fp)
 8002714:	10800017 	ldw	r2,0(r2)
 8002718:	1007883a 	mov	r3,r2
 800271c:	e0bfff17 	ldw	r2,-4(fp)
 8002720:	10800117 	ldw	r2,4(r2)
 8002724:	10bfffc4 	addi	r2,r2,-1
 8002728:	1885003a 	cmpeq	r2,r3,r2
 800272c:	10803fcc 	andi	r2,r2,255
 8002730:	e037883a 	mov	sp,fp
 8002734:	df000017 	ldw	fp,0(sp)
 8002738:	dec00104 	addi	sp,sp,4
 800273c:	f800283a 	ret

08002740 <isEmpty>:
 8002740:	defffe04 	addi	sp,sp,-8
 8002744:	df000115 	stw	fp,4(sp)
 8002748:	df000104 	addi	fp,sp,4
 800274c:	e13fff15 	stw	r4,-4(fp)
 8002750:	e0bfff17 	ldw	r2,-4(fp)
 8002754:	10800017 	ldw	r2,0(r2)
 8002758:	10bfffe0 	cmpeqi	r2,r2,-1
 800275c:	10803fcc 	andi	r2,r2,255
 8002760:	e037883a 	mov	sp,fp
 8002764:	df000017 	ldw	fp,0(sp)
 8002768:	dec00104 	addi	sp,sp,4
 800276c:	f800283a 	ret

08002770 <push>:
 8002770:	defffc04 	addi	sp,sp,-16
 8002774:	dfc00315 	stw	ra,12(sp)
 8002778:	df000215 	stw	fp,8(sp)
 800277c:	df000204 	addi	fp,sp,8
 8002780:	e13ffe15 	stw	r4,-8(fp)
 8002784:	e17fff15 	stw	r5,-4(fp)
 8002788:	e13ffe17 	ldw	r4,-8(fp)
 800278c:	80027000 	call	8002700 <isFull>
 8002790:	10000f1e 	bne	r2,zero,80027d0 <push+0x60>
 8002794:	e0bffe17 	ldw	r2,-8(fp)
 8002798:	10c00217 	ldw	r3,8(r2)
 800279c:	e0bffe17 	ldw	r2,-8(fp)
 80027a0:	10800017 	ldw	r2,0(r2)
 80027a4:	11000044 	addi	r4,r2,1
 80027a8:	e0bffe17 	ldw	r2,-8(fp)
 80027ac:	11000015 	stw	r4,0(r2)
 80027b0:	e0bffe17 	ldw	r2,-8(fp)
 80027b4:	10800017 	ldw	r2,0(r2)
 80027b8:	1085883a 	add	r2,r2,r2
 80027bc:	1085883a 	add	r2,r2,r2
 80027c0:	1885883a 	add	r2,r3,r2
 80027c4:	e0ffff17 	ldw	r3,-4(fp)
 80027c8:	10c00015 	stw	r3,0(r2)
 80027cc:	00000106 	br	80027d4 <push+0x64>
 80027d0:	0001883a 	nop
 80027d4:	e037883a 	mov	sp,fp
 80027d8:	dfc00117 	ldw	ra,4(sp)
 80027dc:	df000017 	ldw	fp,0(sp)
 80027e0:	dec00204 	addi	sp,sp,8
 80027e4:	f800283a 	ret

080027e8 <pop>:
 80027e8:	defffd04 	addi	sp,sp,-12
 80027ec:	dfc00215 	stw	ra,8(sp)
 80027f0:	df000115 	stw	fp,4(sp)
 80027f4:	df000104 	addi	fp,sp,4
 80027f8:	e13fff15 	stw	r4,-4(fp)
 80027fc:	e13fff17 	ldw	r4,-4(fp)
 8002800:	80027400 	call	8002740 <isEmpty>
 8002804:	10000226 	beq	r2,zero,8002810 <pop+0x28>
 8002808:	00a00034 	movhi	r2,32768
 800280c:	00000b06 	br	800283c <pop+0x54>
 8002810:	e0bfff17 	ldw	r2,-4(fp)
 8002814:	10c00217 	ldw	r3,8(r2)
 8002818:	e0bfff17 	ldw	r2,-4(fp)
 800281c:	10800017 	ldw	r2,0(r2)
 8002820:	117fffc4 	addi	r5,r2,-1
 8002824:	e13fff17 	ldw	r4,-4(fp)
 8002828:	21400015 	stw	r5,0(r4)
 800282c:	1085883a 	add	r2,r2,r2
 8002830:	1085883a 	add	r2,r2,r2
 8002834:	1885883a 	add	r2,r3,r2
 8002838:	10800017 	ldw	r2,0(r2)
 800283c:	e037883a 	mov	sp,fp
 8002840:	dfc00117 	ldw	ra,4(sp)
 8002844:	df000017 	ldw	fp,0(sp)
 8002848:	dec00204 	addi	sp,sp,8
 800284c:	f800283a 	ret

08002850 <peek>:
 8002850:	defffd04 	addi	sp,sp,-12
 8002854:	dfc00215 	stw	ra,8(sp)
 8002858:	df000115 	stw	fp,4(sp)
 800285c:	df000104 	addi	fp,sp,4
 8002860:	e13fff15 	stw	r4,-4(fp)
 8002864:	e13fff17 	ldw	r4,-4(fp)
 8002868:	80027400 	call	8002740 <isEmpty>
 800286c:	10000226 	beq	r2,zero,8002878 <peek+0x28>
 8002870:	00a00034 	movhi	r2,32768
 8002874:	00000806 	br	8002898 <peek+0x48>
 8002878:	e0bfff17 	ldw	r2,-4(fp)
 800287c:	10c00217 	ldw	r3,8(r2)
 8002880:	e0bfff17 	ldw	r2,-4(fp)
 8002884:	10800017 	ldw	r2,0(r2)
 8002888:	1085883a 	add	r2,r2,r2
 800288c:	1085883a 	add	r2,r2,r2
 8002890:	1885883a 	add	r2,r3,r2
 8002894:	10800017 	ldw	r2,0(r2)
 8002898:	e037883a 	mov	sp,fp
 800289c:	dfc00117 	ldw	ra,4(sp)
 80028a0:	df000017 	ldw	fp,0(sp)
 80028a4:	dec00204 	addi	sp,sp,8
 80028a8:	f800283a 	ret

080028ac <HIDMProbe>:
 80028ac:	defff204 	addi	sp,sp,-56
 80028b0:	dfc00d15 	stw	ra,52(sp)
 80028b4:	df000c15 	stw	fp,48(sp)
 80028b8:	df000c04 	addi	fp,sp,48
 80028bc:	2005883a 	mov	r2,r4
 80028c0:	e17fff15 	stw	r5,-4(fp)
 80028c4:	e0bffe05 	stb	r2,-8(fp)
 80028c8:	008200b4 	movhi	r2,2050
 80028cc:	10a18a04 	addi	r2,r2,-31192
 80028d0:	e0bffa15 	stw	r2,-24(fp)
 80028d4:	008200b4 	movhi	r2,2050
 80028d8:	10a18a04 	addi	r2,r2,-31192
 80028dc:	e0bffb15 	stw	r2,-20(fp)
 80028e0:	e0fffe03 	ldbu	r3,-8(fp)
 80028e4:	008200b4 	movhi	r2,2050
 80028e8:	10a18a04 	addi	r2,r2,-31192
 80028ec:	d8800415 	stw	r2,16(sp)
 80028f0:	00800244 	movi	r2,9
 80028f4:	d8800315 	stw	r2,12(sp)
 80028f8:	d8000215 	stw	zero,8(sp)
 80028fc:	00800084 	movi	r2,2
 8002900:	d8800115 	stw	r2,4(sp)
 8002904:	d8000015 	stw	zero,0(sp)
 8002908:	01c00184 	movi	r7,6
 800290c:	01802004 	movi	r6,128
 8002910:	000b883a 	mov	r5,zero
 8002914:	1809883a 	mov	r4,r3
 8002918:	8003a0c0 	call	8003a0c <XferCtrlReq>
 800291c:	e0bffc05 	stb	r2,-16(fp)
 8002920:	e0bffc03 	ldbu	r2,-16(fp)
 8002924:	10000226 	beq	r2,zero,8002930 <HIDMProbe+0x84>
 8002928:	0005883a 	mov	r2,zero
 800292c:	0000dc06 	br	8002ca0 <HIDMProbe+0x3f4>
 8002930:	e0bffa17 	ldw	r2,-24(fp)
 8002934:	1080008b 	ldhu	r2,2(r2)
 8002938:	10bfffcc 	andi	r2,r2,65535
 800293c:	10804070 	cmpltui	r2,r2,257
 8002940:	1000031e 	bne	r2,zero,8002950 <HIDMProbe+0xa4>
 8002944:	00804004 	movi	r2,256
 8002948:	e0bff90d 	sth	r2,-28(fp)
 800294c:	00000306 	br	800295c <HIDMProbe+0xb0>
 8002950:	e0bffa17 	ldw	r2,-24(fp)
 8002954:	1080008b 	ldhu	r2,2(r2)
 8002958:	e0bff90d 	sth	r2,-28(fp)
 800295c:	e13ffe03 	ldbu	r4,-8(fp)
 8002960:	e0fff90b 	ldhu	r3,-28(fp)
 8002964:	008200b4 	movhi	r2,2050
 8002968:	10a18a04 	addi	r2,r2,-31192
 800296c:	d8800415 	stw	r2,16(sp)
 8002970:	d8c00315 	stw	r3,12(sp)
 8002974:	d8000215 	stw	zero,8(sp)
 8002978:	00800084 	movi	r2,2
 800297c:	d8800115 	stw	r2,4(sp)
 8002980:	d8000015 	stw	zero,0(sp)
 8002984:	01c00184 	movi	r7,6
 8002988:	01802004 	movi	r6,128
 800298c:	000b883a 	mov	r5,zero
 8002990:	8003a0c0 	call	8003a0c <XferCtrlReq>
 8002994:	e0bffc05 	stb	r2,-16(fp)
 8002998:	e0bffc03 	ldbu	r2,-16(fp)
 800299c:	10000226 	beq	r2,zero,80029a8 <HIDMProbe+0xfc>
 80029a0:	0005883a 	mov	r2,zero
 80029a4:	0000be06 	br	8002ca0 <HIDMProbe+0x3f4>
 80029a8:	e0bffa17 	ldw	r2,-24(fp)
 80029ac:	10800143 	ldbu	r2,5(r2)
 80029b0:	e0bffc45 	stb	r2,-15(fp)
 80029b4:	0000b306 	br	8002c84 <HIDMProbe+0x3d8>
 80029b8:	e0bffa17 	ldw	r2,-24(fp)
 80029bc:	10800043 	ldbu	r2,1(r2)
 80029c0:	10803fcc 	andi	r2,r2,255
 80029c4:	10800120 	cmpeqi	r2,r2,4
 80029c8:	1000091e 	bne	r2,zero,80029f0 <HIDMProbe+0x144>
 80029cc:	e0bffa17 	ldw	r2,-24(fp)
 80029d0:	10800003 	ldbu	r2,0(r2)
 80029d4:	10803fcc 	andi	r2,r2,255
 80029d8:	e0fffb17 	ldw	r3,-20(fp)
 80029dc:	1885883a 	add	r2,r3,r2
 80029e0:	e0bffb15 	stw	r2,-20(fp)
 80029e4:	e0bffb17 	ldw	r2,-20(fp)
 80029e8:	e0bffa15 	stw	r2,-24(fp)
 80029ec:	0000a506 	br	8002c84 <HIDMProbe+0x3d8>
 80029f0:	e0bffa17 	ldw	r2,-24(fp)
 80029f4:	10800143 	ldbu	r2,5(r2)
 80029f8:	e0bffc85 	stb	r2,-14(fp)
 80029fc:	e0bffa17 	ldw	r2,-24(fp)
 8002a00:	10800183 	ldbu	r2,6(r2)
 8002a04:	e0bffcc5 	stb	r2,-13(fp)
 8002a08:	e0bffa17 	ldw	r2,-24(fp)
 8002a0c:	108001c3 	ldbu	r2,7(r2)
 8002a10:	e0bffd05 	stb	r2,-12(fp)
 8002a14:	e0bffc83 	ldbu	r2,-14(fp)
 8002a18:	108000d8 	cmpnei	r2,r2,3
 8002a1c:	1000971e 	bne	r2,zero,8002c7c <HIDMProbe+0x3d0>
 8002a20:	e0bffcc3 	ldbu	r2,-13(fp)
 8002a24:	10800058 	cmpnei	r2,r2,1
 8002a28:	1000941e 	bne	r2,zero,8002c7c <HIDMProbe+0x3d0>
 8002a2c:	e0bffd03 	ldbu	r2,-12(fp)
 8002a30:	10800098 	cmpnei	r2,r2,2
 8002a34:	1000911e 	bne	r2,zero,8002c7c <HIDMProbe+0x3d0>
 8002a38:	e0fffe03 	ldbu	r3,-8(fp)
 8002a3c:	008200b4 	movhi	r2,2050
 8002a40:	10a1ca04 	addi	r2,r2,-30936
 8002a44:	180690fa 	slli	r3,r3,3
 8002a48:	10c5883a 	add	r2,r2,r3
 8002a4c:	10800104 	addi	r2,r2,4
 8002a50:	00c00084 	movi	r3,2
 8002a54:	10c00005 	stb	r3,0(r2)
 8002a58:	e0fffe03 	ldbu	r3,-8(fp)
 8002a5c:	008200b4 	movhi	r2,2050
 8002a60:	10a1ca04 	addi	r2,r2,-30936
 8002a64:	180690fa 	slli	r3,r3,3
 8002a68:	10c5883a 	add	r2,r2,r3
 8002a6c:	10800017 	ldw	r2,0(r2)
 8002a70:	1080008b 	ldhu	r2,2(r2)
 8002a74:	e0bffd45 	stb	r2,-11(fp)
 8002a78:	80030bc0 	call	80030bc <HID_init>
 8002a7c:	e0fffe03 	ldbu	r3,-8(fp)
 8002a80:	008200b4 	movhi	r2,2050
 8002a84:	10a1ca04 	addi	r2,r2,-30936
 8002a88:	180690fa 	slli	r3,r3,3
 8002a8c:	10c7883a 	add	r3,r2,r3
 8002a90:	008200b4 	movhi	r2,2050
 8002a94:	10a17604 	addi	r2,r2,-31272
 8002a98:	18800015 	stw	r2,0(r3)
 8002a9c:	e0fffe03 	ldbu	r3,-8(fp)
 8002aa0:	008200b4 	movhi	r2,2050
 8002aa4:	10a1ca04 	addi	r2,r2,-30936
 8002aa8:	180690fa 	slli	r3,r3,3
 8002aac:	10c5883a 	add	r2,r2,r3
 8002ab0:	10800017 	ldw	r2,0(r2)
 8002ab4:	e0fffd43 	ldbu	r3,-11(fp)
 8002ab8:	10c0008d 	sth	r3,2(r2)
 8002abc:	e0bffa17 	ldw	r2,-24(fp)
 8002ac0:	10800083 	ldbu	r2,2(r2)
 8002ac4:	d0a6ed45 	stb	r2,-25675(gp)
 8002ac8:	e0bffe03 	ldbu	r2,-8(fp)
 8002acc:	d0a6ed05 	stb	r2,-25676(gp)
 8002ad0:	e0bffa17 	ldw	r2,-24(fp)
 8002ad4:	10800003 	ldbu	r2,0(r2)
 8002ad8:	10803fcc 	andi	r2,r2,255
 8002adc:	e0fffb17 	ldw	r3,-20(fp)
 8002ae0:	1885883a 	add	r2,r3,r2
 8002ae4:	e0bffb15 	stw	r2,-20(fp)
 8002ae8:	e0bffb17 	ldw	r2,-20(fp)
 8002aec:	e0bffa15 	stw	r2,-24(fp)
 8002af0:	00005b06 	br	8002c60 <HIDMProbe+0x3b4>
 8002af4:	e0bffa17 	ldw	r2,-24(fp)
 8002af8:	10800043 	ldbu	r2,1(r2)
 8002afc:	10803fcc 	andi	r2,r2,255
 8002b00:	10800160 	cmpeqi	r2,r2,5
 8002b04:	1000091e 	bne	r2,zero,8002b2c <HIDMProbe+0x280>
 8002b08:	e0bffa17 	ldw	r2,-24(fp)
 8002b0c:	10800003 	ldbu	r2,0(r2)
 8002b10:	10803fcc 	andi	r2,r2,255
 8002b14:	e0fffb17 	ldw	r3,-20(fp)
 8002b18:	1885883a 	add	r2,r3,r2
 8002b1c:	e0bffb15 	stw	r2,-20(fp)
 8002b20:	e0bffb17 	ldw	r2,-20(fp)
 8002b24:	e0bffa15 	stw	r2,-24(fp)
 8002b28:	00004d06 	br	8002c60 <HIDMProbe+0x3b4>
 8002b2c:	e0fffe03 	ldbu	r3,-8(fp)
 8002b30:	008200b4 	movhi	r2,2050
 8002b34:	10a1ca04 	addi	r2,r2,-30936
 8002b38:	180690fa 	slli	r3,r3,3
 8002b3c:	10c5883a 	add	r2,r2,r3
 8002b40:	10800017 	ldw	r2,0(r2)
 8002b44:	10800204 	addi	r2,r2,8
 8002b48:	e0fffa17 	ldw	r3,-24(fp)
 8002b4c:	18c00083 	ldbu	r3,2(r3)
 8002b50:	10c00005 	stb	r3,0(r2)
 8002b54:	e0fffe03 	ldbu	r3,-8(fp)
 8002b58:	008200b4 	movhi	r2,2050
 8002b5c:	10a1ca04 	addi	r2,r2,-30936
 8002b60:	180690fa 	slli	r3,r3,3
 8002b64:	10c5883a 	add	r2,r2,r3
 8002b68:	10800017 	ldw	r2,0(r2)
 8002b6c:	10800204 	addi	r2,r2,8
 8002b70:	e0fffa17 	ldw	r3,-24(fp)
 8002b74:	18c000c3 	ldbu	r3,3(r3)
 8002b78:	10c00045 	stb	r3,1(r2)
 8002b7c:	e0fffe03 	ldbu	r3,-8(fp)
 8002b80:	008200b4 	movhi	r2,2050
 8002b84:	10a1ca04 	addi	r2,r2,-30936
 8002b88:	180690fa 	slli	r3,r3,3
 8002b8c:	10c5883a 	add	r2,r2,r3
 8002b90:	10800017 	ldw	r2,0(r2)
 8002b94:	10800204 	addi	r2,r2,8
 8002b98:	e0fffa17 	ldw	r3,-24(fp)
 8002b9c:	18c0010b 	ldhu	r3,4(r3)
 8002ba0:	10c0008d 	sth	r3,2(r2)
 8002ba4:	e0fffe03 	ldbu	r3,-8(fp)
 8002ba8:	008200b4 	movhi	r2,2050
 8002bac:	10a1ca04 	addi	r2,r2,-30936
 8002bb0:	180690fa 	slli	r3,r3,3
 8002bb4:	10c5883a 	add	r2,r2,r3
 8002bb8:	10800017 	ldw	r2,0(r2)
 8002bbc:	10800204 	addi	r2,r2,8
 8002bc0:	e0fffa17 	ldw	r3,-24(fp)
 8002bc4:	18c00183 	ldbu	r3,6(r3)
 8002bc8:	10c00105 	stb	r3,4(r2)
 8002bcc:	e0fffe03 	ldbu	r3,-8(fp)
 8002bd0:	e0bffc43 	ldbu	r2,-15(fp)
 8002bd4:	d8000415 	stw	zero,16(sp)
 8002bd8:	d8000315 	stw	zero,12(sp)
 8002bdc:	d8000215 	stw	zero,8(sp)
 8002be0:	d8000115 	stw	zero,4(sp)
 8002be4:	d8800015 	stw	r2,0(sp)
 8002be8:	01c00244 	movi	r7,9
 8002bec:	000d883a 	mov	r6,zero
 8002bf0:	000b883a 	mov	r5,zero
 8002bf4:	1809883a 	mov	r4,r3
 8002bf8:	8003a0c0 	call	8003a0c <XferCtrlReq>
 8002bfc:	e0bffc05 	stb	r2,-16(fp)
 8002c00:	e0bffc03 	ldbu	r2,-16(fp)
 8002c04:	10000226 	beq	r2,zero,8002c10 <HIDMProbe+0x364>
 8002c08:	0005883a 	mov	r2,zero
 8002c0c:	00002406 	br	8002ca0 <HIDMProbe+0x3f4>
 8002c10:	e0fffe03 	ldbu	r3,-8(fp)
 8002c14:	d0a6ed43 	ldbu	r2,-25675(gp)
 8002c18:	10803fcc 	andi	r2,r2,255
 8002c1c:	d8000415 	stw	zero,16(sp)
 8002c20:	d8000315 	stw	zero,12(sp)
 8002c24:	d8800215 	stw	r2,8(sp)
 8002c28:	d8000115 	stw	zero,4(sp)
 8002c2c:	d8000015 	stw	zero,0(sp)
 8002c30:	01c002c4 	movi	r7,11
 8002c34:	01800844 	movi	r6,33
 8002c38:	000b883a 	mov	r5,zero
 8002c3c:	1809883a 	mov	r4,r3
 8002c40:	8003a0c0 	call	8003a0c <XferCtrlReq>
 8002c44:	e0bffc05 	stb	r2,-16(fp)
 8002c48:	e0bffc03 	ldbu	r2,-16(fp)
 8002c4c:	10000226 	beq	r2,zero,8002c58 <HIDMProbe+0x3ac>
 8002c50:	0005883a 	mov	r2,zero
 8002c54:	00001206 	br	8002ca0 <HIDMProbe+0x3f4>
 8002c58:	00800044 	movi	r2,1
 8002c5c:	00001006 	br	8002ca0 <HIDMProbe+0x3f4>
 8002c60:	e0fff90b 	ldhu	r3,-28(fp)
 8002c64:	008200b4 	movhi	r2,2050
 8002c68:	10a18a04 	addi	r2,r2,-31192
 8002c6c:	1885883a 	add	r2,r3,r2
 8002c70:	e0fffb17 	ldw	r3,-20(fp)
 8002c74:	18bf9f36 	bltu	r3,r2,8002af4 <__alt_data_end+0xfc002af4>
 8002c78:	00000206 	br	8002c84 <HIDMProbe+0x3d8>
 8002c7c:	0005883a 	mov	r2,zero
 8002c80:	00000706 	br	8002ca0 <HIDMProbe+0x3f4>
 8002c84:	e0fff90b 	ldhu	r3,-28(fp)
 8002c88:	008200b4 	movhi	r2,2050
 8002c8c:	10a18a04 	addi	r2,r2,-31192
 8002c90:	1885883a 	add	r2,r3,r2
 8002c94:	e0fffb17 	ldw	r3,-20(fp)
 8002c98:	18bf4736 	bltu	r3,r2,80029b8 <__alt_data_end+0xfc0029b8>
 8002c9c:	0005883a 	mov	r2,zero
 8002ca0:	e037883a 	mov	sp,fp
 8002ca4:	dfc00117 	ldw	ra,4(sp)
 8002ca8:	df000017 	ldw	fp,0(sp)
 8002cac:	dec00204 	addi	sp,sp,8
 8002cb0:	f800283a 	ret

08002cb4 <HIDKProbe>:
 8002cb4:	defff204 	addi	sp,sp,-56
 8002cb8:	dfc00d15 	stw	ra,52(sp)
 8002cbc:	df000c15 	stw	fp,48(sp)
 8002cc0:	df000c04 	addi	fp,sp,48
 8002cc4:	2005883a 	mov	r2,r4
 8002cc8:	e17fff15 	stw	r5,-4(fp)
 8002ccc:	e0bffe05 	stb	r2,-8(fp)
 8002cd0:	008200b4 	movhi	r2,2050
 8002cd4:	10a18a04 	addi	r2,r2,-31192
 8002cd8:	e0bffa15 	stw	r2,-24(fp)
 8002cdc:	008200b4 	movhi	r2,2050
 8002ce0:	10a18a04 	addi	r2,r2,-31192
 8002ce4:	e0bffb15 	stw	r2,-20(fp)
 8002ce8:	e0fffe03 	ldbu	r3,-8(fp)
 8002cec:	008200b4 	movhi	r2,2050
 8002cf0:	10a18a04 	addi	r2,r2,-31192
 8002cf4:	d8800415 	stw	r2,16(sp)
 8002cf8:	00800244 	movi	r2,9
 8002cfc:	d8800315 	stw	r2,12(sp)
 8002d00:	d8000215 	stw	zero,8(sp)
 8002d04:	00800084 	movi	r2,2
 8002d08:	d8800115 	stw	r2,4(sp)
 8002d0c:	d8000015 	stw	zero,0(sp)
 8002d10:	01c00184 	movi	r7,6
 8002d14:	01802004 	movi	r6,128
 8002d18:	000b883a 	mov	r5,zero
 8002d1c:	1809883a 	mov	r4,r3
 8002d20:	8003a0c0 	call	8003a0c <XferCtrlReq>
 8002d24:	e0bffc05 	stb	r2,-16(fp)
 8002d28:	e0bffc03 	ldbu	r2,-16(fp)
 8002d2c:	10000226 	beq	r2,zero,8002d38 <HIDKProbe+0x84>
 8002d30:	0005883a 	mov	r2,zero
 8002d34:	0000dc06 	br	80030a8 <HIDKProbe+0x3f4>
 8002d38:	e0bffa17 	ldw	r2,-24(fp)
 8002d3c:	1080008b 	ldhu	r2,2(r2)
 8002d40:	10bfffcc 	andi	r2,r2,65535
 8002d44:	10804070 	cmpltui	r2,r2,257
 8002d48:	1000031e 	bne	r2,zero,8002d58 <HIDKProbe+0xa4>
 8002d4c:	00804004 	movi	r2,256
 8002d50:	e0bff90d 	sth	r2,-28(fp)
 8002d54:	00000306 	br	8002d64 <HIDKProbe+0xb0>
 8002d58:	e0bffa17 	ldw	r2,-24(fp)
 8002d5c:	1080008b 	ldhu	r2,2(r2)
 8002d60:	e0bff90d 	sth	r2,-28(fp)
 8002d64:	e13ffe03 	ldbu	r4,-8(fp)
 8002d68:	e0fff90b 	ldhu	r3,-28(fp)
 8002d6c:	008200b4 	movhi	r2,2050
 8002d70:	10a18a04 	addi	r2,r2,-31192
 8002d74:	d8800415 	stw	r2,16(sp)
 8002d78:	d8c00315 	stw	r3,12(sp)
 8002d7c:	d8000215 	stw	zero,8(sp)
 8002d80:	00800084 	movi	r2,2
 8002d84:	d8800115 	stw	r2,4(sp)
 8002d88:	d8000015 	stw	zero,0(sp)
 8002d8c:	01c00184 	movi	r7,6
 8002d90:	01802004 	movi	r6,128
 8002d94:	000b883a 	mov	r5,zero
 8002d98:	8003a0c0 	call	8003a0c <XferCtrlReq>
 8002d9c:	e0bffc05 	stb	r2,-16(fp)
 8002da0:	e0bffc03 	ldbu	r2,-16(fp)
 8002da4:	10000226 	beq	r2,zero,8002db0 <HIDKProbe+0xfc>
 8002da8:	0005883a 	mov	r2,zero
 8002dac:	0000be06 	br	80030a8 <HIDKProbe+0x3f4>
 8002db0:	e0bffa17 	ldw	r2,-24(fp)
 8002db4:	10800143 	ldbu	r2,5(r2)
 8002db8:	e0bffc45 	stb	r2,-15(fp)
 8002dbc:	0000b306 	br	800308c <HIDKProbe+0x3d8>
 8002dc0:	e0bffa17 	ldw	r2,-24(fp)
 8002dc4:	10800043 	ldbu	r2,1(r2)
 8002dc8:	10803fcc 	andi	r2,r2,255
 8002dcc:	10800120 	cmpeqi	r2,r2,4
 8002dd0:	1000091e 	bne	r2,zero,8002df8 <HIDKProbe+0x144>
 8002dd4:	e0bffa17 	ldw	r2,-24(fp)
 8002dd8:	10800003 	ldbu	r2,0(r2)
 8002ddc:	10803fcc 	andi	r2,r2,255
 8002de0:	e0fffb17 	ldw	r3,-20(fp)
 8002de4:	1885883a 	add	r2,r3,r2
 8002de8:	e0bffb15 	stw	r2,-20(fp)
 8002dec:	e0bffb17 	ldw	r2,-20(fp)
 8002df0:	e0bffa15 	stw	r2,-24(fp)
 8002df4:	0000a506 	br	800308c <HIDKProbe+0x3d8>
 8002df8:	e0bffa17 	ldw	r2,-24(fp)
 8002dfc:	10800143 	ldbu	r2,5(r2)
 8002e00:	e0bffc85 	stb	r2,-14(fp)
 8002e04:	e0bffa17 	ldw	r2,-24(fp)
 8002e08:	10800183 	ldbu	r2,6(r2)
 8002e0c:	e0bffcc5 	stb	r2,-13(fp)
 8002e10:	e0bffa17 	ldw	r2,-24(fp)
 8002e14:	108001c3 	ldbu	r2,7(r2)
 8002e18:	e0bffd05 	stb	r2,-12(fp)
 8002e1c:	e0bffc83 	ldbu	r2,-14(fp)
 8002e20:	108000d8 	cmpnei	r2,r2,3
 8002e24:	1000971e 	bne	r2,zero,8003084 <HIDKProbe+0x3d0>
 8002e28:	e0bffcc3 	ldbu	r2,-13(fp)
 8002e2c:	10800058 	cmpnei	r2,r2,1
 8002e30:	1000941e 	bne	r2,zero,8003084 <HIDKProbe+0x3d0>
 8002e34:	e0bffd03 	ldbu	r2,-12(fp)
 8002e38:	10800058 	cmpnei	r2,r2,1
 8002e3c:	1000911e 	bne	r2,zero,8003084 <HIDKProbe+0x3d0>
 8002e40:	e0fffe03 	ldbu	r3,-8(fp)
 8002e44:	008200b4 	movhi	r2,2050
 8002e48:	10a1ca04 	addi	r2,r2,-30936
 8002e4c:	180690fa 	slli	r3,r3,3
 8002e50:	10c5883a 	add	r2,r2,r3
 8002e54:	10800104 	addi	r2,r2,4
 8002e58:	00c00044 	movi	r3,1
 8002e5c:	10c00005 	stb	r3,0(r2)
 8002e60:	e0fffe03 	ldbu	r3,-8(fp)
 8002e64:	008200b4 	movhi	r2,2050
 8002e68:	10a1ca04 	addi	r2,r2,-30936
 8002e6c:	180690fa 	slli	r3,r3,3
 8002e70:	10c5883a 	add	r2,r2,r3
 8002e74:	10800017 	ldw	r2,0(r2)
 8002e78:	1080008b 	ldhu	r2,2(r2)
 8002e7c:	e0bffd45 	stb	r2,-11(fp)
 8002e80:	80030bc0 	call	80030bc <HID_init>
 8002e84:	e0fffe03 	ldbu	r3,-8(fp)
 8002e88:	008200b4 	movhi	r2,2050
 8002e8c:	10a1ca04 	addi	r2,r2,-30936
 8002e90:	180690fa 	slli	r3,r3,3
 8002e94:	10c7883a 	add	r3,r2,r3
 8002e98:	008200b4 	movhi	r2,2050
 8002e9c:	10a17604 	addi	r2,r2,-31272
 8002ea0:	18800015 	stw	r2,0(r3)
 8002ea4:	e0fffe03 	ldbu	r3,-8(fp)
 8002ea8:	008200b4 	movhi	r2,2050
 8002eac:	10a1ca04 	addi	r2,r2,-30936
 8002eb0:	180690fa 	slli	r3,r3,3
 8002eb4:	10c5883a 	add	r2,r2,r3
 8002eb8:	10800017 	ldw	r2,0(r2)
 8002ebc:	e0fffd43 	ldbu	r3,-11(fp)
 8002ec0:	10c0008d 	sth	r3,2(r2)
 8002ec4:	e0bffa17 	ldw	r2,-24(fp)
 8002ec8:	10800083 	ldbu	r2,2(r2)
 8002ecc:	d0a6ed45 	stb	r2,-25675(gp)
 8002ed0:	e0bffe03 	ldbu	r2,-8(fp)
 8002ed4:	d0a6ed05 	stb	r2,-25676(gp)
 8002ed8:	e0bffa17 	ldw	r2,-24(fp)
 8002edc:	10800003 	ldbu	r2,0(r2)
 8002ee0:	10803fcc 	andi	r2,r2,255
 8002ee4:	e0fffb17 	ldw	r3,-20(fp)
 8002ee8:	1885883a 	add	r2,r3,r2
 8002eec:	e0bffb15 	stw	r2,-20(fp)
 8002ef0:	e0bffb17 	ldw	r2,-20(fp)
 8002ef4:	e0bffa15 	stw	r2,-24(fp)
 8002ef8:	00005b06 	br	8003068 <HIDKProbe+0x3b4>
 8002efc:	e0bffa17 	ldw	r2,-24(fp)
 8002f00:	10800043 	ldbu	r2,1(r2)
 8002f04:	10803fcc 	andi	r2,r2,255
 8002f08:	10800160 	cmpeqi	r2,r2,5
 8002f0c:	1000091e 	bne	r2,zero,8002f34 <HIDKProbe+0x280>
 8002f10:	e0bffa17 	ldw	r2,-24(fp)
 8002f14:	10800003 	ldbu	r2,0(r2)
 8002f18:	10803fcc 	andi	r2,r2,255
 8002f1c:	e0fffb17 	ldw	r3,-20(fp)
 8002f20:	1885883a 	add	r2,r3,r2
 8002f24:	e0bffb15 	stw	r2,-20(fp)
 8002f28:	e0bffb17 	ldw	r2,-20(fp)
 8002f2c:	e0bffa15 	stw	r2,-24(fp)
 8002f30:	00004d06 	br	8003068 <HIDKProbe+0x3b4>
 8002f34:	e0fffe03 	ldbu	r3,-8(fp)
 8002f38:	008200b4 	movhi	r2,2050
 8002f3c:	10a1ca04 	addi	r2,r2,-30936
 8002f40:	180690fa 	slli	r3,r3,3
 8002f44:	10c5883a 	add	r2,r2,r3
 8002f48:	10800017 	ldw	r2,0(r2)
 8002f4c:	10800204 	addi	r2,r2,8
 8002f50:	e0fffa17 	ldw	r3,-24(fp)
 8002f54:	18c00083 	ldbu	r3,2(r3)
 8002f58:	10c00005 	stb	r3,0(r2)
 8002f5c:	e0fffe03 	ldbu	r3,-8(fp)
 8002f60:	008200b4 	movhi	r2,2050
 8002f64:	10a1ca04 	addi	r2,r2,-30936
 8002f68:	180690fa 	slli	r3,r3,3
 8002f6c:	10c5883a 	add	r2,r2,r3
 8002f70:	10800017 	ldw	r2,0(r2)
 8002f74:	10800204 	addi	r2,r2,8
 8002f78:	e0fffa17 	ldw	r3,-24(fp)
 8002f7c:	18c000c3 	ldbu	r3,3(r3)
 8002f80:	10c00045 	stb	r3,1(r2)
 8002f84:	e0fffe03 	ldbu	r3,-8(fp)
 8002f88:	008200b4 	movhi	r2,2050
 8002f8c:	10a1ca04 	addi	r2,r2,-30936
 8002f90:	180690fa 	slli	r3,r3,3
 8002f94:	10c5883a 	add	r2,r2,r3
 8002f98:	10800017 	ldw	r2,0(r2)
 8002f9c:	10800204 	addi	r2,r2,8
 8002fa0:	e0fffa17 	ldw	r3,-24(fp)
 8002fa4:	18c0010b 	ldhu	r3,4(r3)
 8002fa8:	10c0008d 	sth	r3,2(r2)
 8002fac:	e0fffe03 	ldbu	r3,-8(fp)
 8002fb0:	008200b4 	movhi	r2,2050
 8002fb4:	10a1ca04 	addi	r2,r2,-30936
 8002fb8:	180690fa 	slli	r3,r3,3
 8002fbc:	10c5883a 	add	r2,r2,r3
 8002fc0:	10800017 	ldw	r2,0(r2)
 8002fc4:	10800204 	addi	r2,r2,8
 8002fc8:	e0fffa17 	ldw	r3,-24(fp)
 8002fcc:	18c00183 	ldbu	r3,6(r3)
 8002fd0:	10c00105 	stb	r3,4(r2)
 8002fd4:	e0fffe03 	ldbu	r3,-8(fp)
 8002fd8:	e0bffc43 	ldbu	r2,-15(fp)
 8002fdc:	d8000415 	stw	zero,16(sp)
 8002fe0:	d8000315 	stw	zero,12(sp)
 8002fe4:	d8000215 	stw	zero,8(sp)
 8002fe8:	d8000115 	stw	zero,4(sp)
 8002fec:	d8800015 	stw	r2,0(sp)
 8002ff0:	01c00244 	movi	r7,9
 8002ff4:	000d883a 	mov	r6,zero
 8002ff8:	000b883a 	mov	r5,zero
 8002ffc:	1809883a 	mov	r4,r3
 8003000:	8003a0c0 	call	8003a0c <XferCtrlReq>
 8003004:	e0bffc05 	stb	r2,-16(fp)
 8003008:	e0bffc03 	ldbu	r2,-16(fp)
 800300c:	10000226 	beq	r2,zero,8003018 <HIDKProbe+0x364>
 8003010:	0005883a 	mov	r2,zero
 8003014:	00002406 	br	80030a8 <HIDKProbe+0x3f4>
 8003018:	e0fffe03 	ldbu	r3,-8(fp)
 800301c:	d0a6ed43 	ldbu	r2,-25675(gp)
 8003020:	10803fcc 	andi	r2,r2,255
 8003024:	d8000415 	stw	zero,16(sp)
 8003028:	d8000315 	stw	zero,12(sp)
 800302c:	d8800215 	stw	r2,8(sp)
 8003030:	d8000115 	stw	zero,4(sp)
 8003034:	d8000015 	stw	zero,0(sp)
 8003038:	01c002c4 	movi	r7,11
 800303c:	01800844 	movi	r6,33
 8003040:	000b883a 	mov	r5,zero
 8003044:	1809883a 	mov	r4,r3
 8003048:	8003a0c0 	call	8003a0c <XferCtrlReq>
 800304c:	e0bffc05 	stb	r2,-16(fp)
 8003050:	e0bffc03 	ldbu	r2,-16(fp)
 8003054:	10000226 	beq	r2,zero,8003060 <HIDKProbe+0x3ac>
 8003058:	0005883a 	mov	r2,zero
 800305c:	00001206 	br	80030a8 <HIDKProbe+0x3f4>
 8003060:	00800044 	movi	r2,1
 8003064:	00001006 	br	80030a8 <HIDKProbe+0x3f4>
 8003068:	e0fff90b 	ldhu	r3,-28(fp)
 800306c:	008200b4 	movhi	r2,2050
 8003070:	10a18a04 	addi	r2,r2,-31192
 8003074:	1885883a 	add	r2,r3,r2
 8003078:	e0fffb17 	ldw	r3,-20(fp)
 800307c:	18bf9f36 	bltu	r3,r2,8002efc <__alt_data_end+0xfc002efc>
 8003080:	00000206 	br	800308c <HIDKProbe+0x3d8>
 8003084:	0005883a 	mov	r2,zero
 8003088:	00000706 	br	80030a8 <HIDKProbe+0x3f4>
 800308c:	e0fff90b 	ldhu	r3,-28(fp)
 8003090:	008200b4 	movhi	r2,2050
 8003094:	10a18a04 	addi	r2,r2,-31192
 8003098:	1885883a 	add	r2,r3,r2
 800309c:	e0fffb17 	ldw	r3,-20(fp)
 80030a0:	18bf4736 	bltu	r3,r2,8002dc0 <__alt_data_end+0xfc002dc0>
 80030a4:	0005883a 	mov	r2,zero
 80030a8:	e037883a 	mov	sp,fp
 80030ac:	dfc00117 	ldw	ra,4(sp)
 80030b0:	df000017 	ldw	fp,0(sp)
 80030b4:	dec00204 	addi	sp,sp,8
 80030b8:	f800283a 	ret

080030bc <HID_init>:
 80030bc:	deffff04 	addi	sp,sp,-4
 80030c0:	df000015 	stw	fp,0(sp)
 80030c4:	d839883a 	mov	fp,sp
 80030c8:	008200b4 	movhi	r2,2050
 80030cc:	10a17604 	addi	r2,r2,-31272
 80030d0:	00c01004 	movi	r3,64
 80030d4:	10c00345 	stb	r3,13(r2)
 80030d8:	008200b4 	movhi	r2,2050
 80030dc:	10a17604 	addi	r2,r2,-31272
 80030e0:	00c00404 	movi	r3,16
 80030e4:	10c00385 	stb	r3,14(r2)
 80030e8:	0001883a 	nop
 80030ec:	e037883a 	mov	sp,fp
 80030f0:	df000017 	ldw	fp,0(sp)
 80030f4:	dec00104 	addi	sp,sp,4
 80030f8:	f800283a 	ret

080030fc <mousePoll>:
 80030fc:	defffb04 	addi	sp,sp,-20
 8003100:	dfc00415 	stw	ra,16(sp)
 8003104:	df000315 	stw	fp,12(sp)
 8003108:	df000304 	addi	fp,sp,12
 800310c:	e13fff15 	stw	r4,-4(fp)
 8003110:	d0a6ed03 	ldbu	r2,-25676(gp)
 8003114:	10803fcc 	andi	r2,r2,255
 8003118:	100b883a 	mov	r5,r2
 800311c:	01003804 	movi	r4,224
 8003120:	80032d80 	call	80032d8 <MAXreg_wr>
 8003124:	d0a6ed03 	ldbu	r2,-25676(gp)
 8003128:	11003fcc 	andi	r4,r2,255
 800312c:	d0a6ed03 	ldbu	r2,-25676(gp)
 8003130:	10c03fcc 	andi	r3,r2,255
 8003134:	008200b4 	movhi	r2,2050
 8003138:	10a1ca04 	addi	r2,r2,-30936
 800313c:	180690fa 	slli	r3,r3,3
 8003140:	10c5883a 	add	r2,r2,r3
 8003144:	10800017 	ldw	r2,0(r2)
 8003148:	10800204 	addi	r2,r2,8
 800314c:	1080008b 	ldhu	r2,2(r2)
 8003150:	10803fcc 	andi	r2,r2,255
 8003154:	d8800015 	stw	r2,0(sp)
 8003158:	e1ffff17 	ldw	r7,-4(fp)
 800315c:	01800204 	movi	r6,8
 8003160:	01400044 	movi	r5,1
 8003164:	8003e300 	call	8003e30 <XferInTransfer>
 8003168:	e0bffe05 	stb	r2,-8(fp)
 800316c:	e0bffe03 	ldbu	r2,-8(fp)
 8003170:	e037883a 	mov	sp,fp
 8003174:	dfc00117 	ldw	ra,4(sp)
 8003178:	df000017 	ldw	fp,0(sp)
 800317c:	dec00204 	addi	sp,sp,8
 8003180:	f800283a 	ret

08003184 <kbdPoll>:
 8003184:	defffb04 	addi	sp,sp,-20
 8003188:	dfc00415 	stw	ra,16(sp)
 800318c:	df000315 	stw	fp,12(sp)
 8003190:	df000304 	addi	fp,sp,12
 8003194:	e13fff15 	stw	r4,-4(fp)
 8003198:	d0a6ed03 	ldbu	r2,-25676(gp)
 800319c:	10803fcc 	andi	r2,r2,255
 80031a0:	100b883a 	mov	r5,r2
 80031a4:	01003804 	movi	r4,224
 80031a8:	80032d80 	call	80032d8 <MAXreg_wr>
 80031ac:	d0a6ed03 	ldbu	r2,-25676(gp)
 80031b0:	11003fcc 	andi	r4,r2,255
 80031b4:	d0a6ed03 	ldbu	r2,-25676(gp)
 80031b8:	10c03fcc 	andi	r3,r2,255
 80031bc:	008200b4 	movhi	r2,2050
 80031c0:	10a1ca04 	addi	r2,r2,-30936
 80031c4:	180690fa 	slli	r3,r3,3
 80031c8:	10c5883a 	add	r2,r2,r3
 80031cc:	10800017 	ldw	r2,0(r2)
 80031d0:	10800204 	addi	r2,r2,8
 80031d4:	1080008b 	ldhu	r2,2(r2)
 80031d8:	10803fcc 	andi	r2,r2,255
 80031dc:	d8800015 	stw	r2,0(sp)
 80031e0:	e1ffff17 	ldw	r7,-4(fp)
 80031e4:	01800204 	movi	r6,8
 80031e8:	01400044 	movi	r5,1
 80031ec:	8003e300 	call	8003e30 <XferInTransfer>
 80031f0:	e0bffe05 	stb	r2,-8(fp)
 80031f4:	e0bffe03 	ldbu	r2,-8(fp)
 80031f8:	e037883a 	mov	sp,fp
 80031fc:	dfc00117 	ldw	ra,4(sp)
 8003200:	df000017 	ldw	fp,0(sp)
 8003204:	dec00204 	addi	sp,sp,8
 8003208:	f800283a 	ret

0800320c <HIDMEventHandler>:
 800320c:	defffb04 	addi	sp,sp,-20
 8003210:	df000415 	stw	fp,16(sp)
 8003214:	df000404 	addi	fp,sp,16
 8003218:	2007883a 	mov	r3,r4
 800321c:	2805883a 	mov	r2,r5
 8003220:	e1bffe15 	stw	r6,-8(fp)
 8003224:	e1ffff15 	stw	r7,-4(fp)
 8003228:	e0fffc05 	stb	r3,-16(fp)
 800322c:	e0bffd05 	stb	r2,-12(fp)
 8003230:	0005883a 	mov	r2,zero
 8003234:	e037883a 	mov	sp,fp
 8003238:	df000017 	ldw	fp,0(sp)
 800323c:	dec00104 	addi	sp,sp,4
 8003240:	f800283a 	ret

08003244 <HIDKEventHandler>:
 8003244:	defffb04 	addi	sp,sp,-20
 8003248:	df000415 	stw	fp,16(sp)
 800324c:	df000404 	addi	fp,sp,16
 8003250:	2007883a 	mov	r3,r4
 8003254:	2805883a 	mov	r2,r5
 8003258:	e1bffe15 	stw	r6,-8(fp)
 800325c:	e1ffff15 	stw	r7,-4(fp)
 8003260:	e0fffc05 	stb	r3,-16(fp)
 8003264:	e0bffd05 	stb	r2,-12(fp)
 8003268:	0005883a 	mov	r2,zero
 800326c:	e037883a 	mov	sp,fp
 8003270:	df000017 	ldw	fp,0(sp)
 8003274:	dec00104 	addi	sp,sp,4
 8003278:	f800283a 	ret

0800327c <SPI_init>:
//External variables
extern BYTE usb_task_state;
volatile unsigned int *SPI0 = (unsigned int*)0x20;

/* Functions    */
void SPI_init(BYTE sync_mode, BYTE bus_mode, BYTE smp_phase) {
 800327c:	defffc04 	addi	sp,sp,-16
 8003280:	df000315 	stw	fp,12(sp)
 8003284:	df000304 	addi	fp,sp,12
 8003288:	2807883a 	mov	r3,r5
 800328c:	3005883a 	mov	r2,r6
 8003290:	e13ffd05 	stb	r4,-12(fp)
 8003294:	e0fffe05 	stb	r3,-8(fp)
 8003298:	e0bfff05 	stb	r2,-4(fp)
	//Don't need to initialize SPI port, already ready to go with BSP
}
 800329c:	0001883a 	nop
 80032a0:	e037883a 	mov	sp,fp
 80032a4:	df000017 	ldw	fp,0(sp)
 80032a8:	dec00104 	addi	sp,sp,4
 80032ac:	f800283a 	ret

080032b0 <SPI_wr>:

//writes single byte to MAX3421E via SPI, simultanously reads status register and returns it
BYTE SPI_wr(BYTE data) {
 80032b0:	defffe04 	addi	sp,sp,-8
 80032b4:	df000115 	stw	fp,4(sp)
 80032b8:	df000104 	addi	fp,sp,4
 80032bc:	2005883a 	mov	r2,r4
 80032c0:	e0bfff05 	stb	r2,-4(fp)
	//This function is never used by the code, so you do not need to fill it in
}
 80032c4:	0001883a 	nop
 80032c8:	e037883a 	mov	sp,fp
 80032cc:	df000017 	ldw	fp,0(sp)
 80032d0:	dec00104 	addi	sp,sp,4
 80032d4:	f800283a 	ret

080032d8 <MAXreg_wr>:
//writes register to MAX3421E via SPI
void MAXreg_wr(BYTE reg, BYTE val) {
 80032d8:	defff704 	addi	sp,sp,-36
 80032dc:	dfc00815 	stw	ra,32(sp)
 80032e0:	df000715 	stw	fp,28(sp)
 80032e4:	df000704 	addi	fp,sp,28
 80032e8:	2007883a 	mov	r3,r4
 80032ec:	2805883a 	mov	r2,r5
 80032f0:	e0fffe05 	stb	r3,-8(fp)
 80032f4:	e0bfff05 	stb	r2,-4(fp)
	//write val via SPI
	//read return code from SPI peripheral (see Intel documentation) 
	//if return code < 0 print an error
	//deselect MAX3421E (may not be necessary if you are using SPI peripheral)
	BYTE wr_data[2];
	wr_data[0] = reg+2;
 80032f8:	e0bffe03 	ldbu	r2,-8(fp)
 80032fc:	10800084 	addi	r2,r2,2
 8003300:	e0bffd05 	stb	r2,-12(fp)
	wr_data[1] = val;
 8003304:	e0bfff03 	ldbu	r2,-4(fp)
 8003308:	e0bffd45 	stb	r2,-11(fp)
	int return_code;
	return_code = alt_avalon_spi_command(0x20, 0, 2, wr_data, 0, 0, 0);
 800330c:	e0bffd04 	addi	r2,fp,-12
 8003310:	d8000215 	stw	zero,8(sp)
 8003314:	d8000115 	stw	zero,4(sp)
 8003318:	d8000015 	stw	zero,0(sp)
 800331c:	100f883a 	mov	r7,r2
 8003320:	01800084 	movi	r6,2
 8003324:	000b883a 	mov	r5,zero
 8003328:	01000804 	movi	r4,32
 800332c:	801345c0 	call	801345c <alt_avalon_spi_command>
 8003330:	e0bffc15 	stw	r2,-16(fp)
	if (return_code < 0)
 8003334:	e0bffc17 	ldw	r2,-16(fp)
 8003338:	1000030e 	bge	r2,zero,8003348 <MAXreg_wr+0x70>
		printf("error");
 800333c:	01020074 	movhi	r4,2049
 8003340:	2112d104 	addi	r4,r4,19268
 8003344:	80055540 	call	8005554 <printf>
}
 8003348:	0001883a 	nop
 800334c:	e037883a 	mov	sp,fp
 8003350:	dfc00117 	ldw	ra,4(sp)
 8003354:	df000017 	ldw	fp,0(sp)
 8003358:	dec00204 	addi	sp,sp,8
 800335c:	f800283a 	ret

08003360 <MAXbytes_wr>:
//multiple-byte write
//returns a pointer to a memory position after last written
BYTE* MAXbytes_wr(BYTE reg, BYTE nbytes, BYTE* data) {
 8003360:	defff304 	addi	sp,sp,-52
 8003364:	dfc00c15 	stw	ra,48(sp)
 8003368:	df000b15 	stw	fp,44(sp)
 800336c:	dc000a15 	stw	r16,40(sp)
 8003370:	df000b04 	addi	fp,sp,44
 8003374:	201b883a 	mov	r13,r4
 8003378:	2809883a 	mov	r4,r5
 800337c:	e1bffe15 	stw	r6,-8(fp)
 8003380:	e37ffc05 	stb	r13,-16(fp)
 8003384:	e13ffd05 	stb	r4,-12(fp)
 8003388:	d809883a 	mov	r4,sp
 800338c:	2021883a 	mov	r16,r4
	//read return code from SPI peripheral (see Intel documentation) 
	//if return code < 0  print an error
	//deselect MAX3421E (may not be necessary if you are using SPI peripheral)
	//return (data + nbytes);
	int return_code;
	BYTE wr_data[nbytes+1];
 8003390:	e13ffd03 	ldbu	r4,-12(fp)
 8003394:	21000044 	addi	r4,r4,1
 8003398:	217fffc4 	addi	r5,r4,-1
 800339c:	e17ff915 	stw	r5,-28(fp)
 80033a0:	200b883a 	mov	r5,r4
 80033a4:	2817883a 	mov	r11,r5
 80033a8:	0019883a 	mov	r12,zero
 80033ac:	580ad77a 	srli	r5,r11,29
 80033b0:	601090fa 	slli	r8,r12,3
 80033b4:	2a10b03a 	or	r8,r5,r8
 80033b8:	580e90fa 	slli	r7,r11,3
 80033bc:	200b883a 	mov	r5,r4
 80033c0:	2813883a 	mov	r9,r5
 80033c4:	0015883a 	mov	r10,zero
 80033c8:	480ad77a 	srli	r5,r9,29
 80033cc:	500690fa 	slli	r3,r10,3
 80033d0:	28c6b03a 	or	r3,r5,r3
 80033d4:	480490fa 	slli	r2,r9,3
 80033d8:	2005883a 	mov	r2,r4
 80033dc:	108000c4 	addi	r2,r2,3
 80033e0:	1004d0ba 	srli	r2,r2,2
 80033e4:	1085883a 	add	r2,r2,r2
 80033e8:	1085883a 	add	r2,r2,r2
 80033ec:	d8b7c83a 	sub	sp,sp,r2
 80033f0:	d8800304 	addi	r2,sp,12
 80033f4:	1005883a 	mov	r2,r2
 80033f8:	e0bffa15 	stw	r2,-24(fp)
	wr_data[0] = (reg+2);
 80033fc:	e0bffc03 	ldbu	r2,-16(fp)
 8003400:	10800084 	addi	r2,r2,2
 8003404:	1007883a 	mov	r3,r2
 8003408:	e0bffa17 	ldw	r2,-24(fp)
 800340c:	10c00005 	stb	r3,0(r2)
	for(int i=1; i<nbytes+1; i++){
 8003410:	00800044 	movi	r2,1
 8003414:	e0bff815 	stw	r2,-32(fp)
 8003418:	00000c06 	br	800344c <MAXbytes_wr+0xec>
		wr_data[i] = data[i-1];
 800341c:	e0bff817 	ldw	r2,-32(fp)
 8003420:	10bfffc4 	addi	r2,r2,-1
 8003424:	e0fffe17 	ldw	r3,-8(fp)
 8003428:	1885883a 	add	r2,r3,r2
 800342c:	10c00003 	ldbu	r3,0(r2)
 8003430:	e13ffa17 	ldw	r4,-24(fp)
 8003434:	e0bff817 	ldw	r2,-32(fp)
 8003438:	2085883a 	add	r2,r4,r2
 800343c:	10c00005 	stb	r3,0(r2)
	//deselect MAX3421E (may not be necessary if you are using SPI peripheral)
	//return (data + nbytes);
	int return_code;
	BYTE wr_data[nbytes+1];
	wr_data[0] = (reg+2);
	for(int i=1; i<nbytes+1; i++){
 8003440:	e0bff817 	ldw	r2,-32(fp)
 8003444:	10800044 	addi	r2,r2,1
 8003448:	e0bff815 	stw	r2,-32(fp)
 800344c:	e0bffd03 	ldbu	r2,-12(fp)
 8003450:	10800044 	addi	r2,r2,1
 8003454:	e0fff817 	ldw	r3,-32(fp)
 8003458:	18bff016 	blt	r3,r2,800341c <__alt_data_end+0xfc00341c>
		wr_data[i] = data[i-1];
	}
	//return_code = alt_avalon_spi_command(SPI0, 0, 1, &reg, 0, 0, ALT_AVALON_SPI_COMMAND_MERGE);
	return_code = alt_avalon_spi_command(0x20, 0, nbytes+1, wr_data, 0, NULL, 0);
 800345c:	e0bffd03 	ldbu	r2,-12(fp)
 8003460:	10800044 	addi	r2,r2,1
 8003464:	1007883a 	mov	r3,r2
 8003468:	e0bffa17 	ldw	r2,-24(fp)
 800346c:	d8000215 	stw	zero,8(sp)
 8003470:	d8000115 	stw	zero,4(sp)
 8003474:	d8000015 	stw	zero,0(sp)
 8003478:	100f883a 	mov	r7,r2
 800347c:	180d883a 	mov	r6,r3
 8003480:	000b883a 	mov	r5,zero
 8003484:	01000804 	movi	r4,32
 8003488:	801345c0 	call	801345c <alt_avalon_spi_command>
 800348c:	e0bffb15 	stw	r2,-20(fp)
	if (return_code < 0)
 8003490:	e0bffb17 	ldw	r2,-20(fp)
 8003494:	1000030e 	bge	r2,zero,80034a4 <MAXbytes_wr+0x144>
			printf("error");
 8003498:	01020074 	movhi	r4,2049
 800349c:	2112d104 	addi	r4,r4,19268
 80034a0:	80055540 	call	8005554 <printf>
	return (data + nbytes);
 80034a4:	e0bffd03 	ldbu	r2,-12(fp)
 80034a8:	e0fffe17 	ldw	r3,-8(fp)
 80034ac:	1885883a 	add	r2,r3,r2
 80034b0:	8037883a 	mov	sp,r16
}
 80034b4:	e6ffff04 	addi	sp,fp,-4
 80034b8:	dfc00217 	ldw	ra,8(sp)
 80034bc:	df000117 	ldw	fp,4(sp)
 80034c0:	dc000017 	ldw	r16,0(sp)
 80034c4:	dec00304 	addi	sp,sp,12
 80034c8:	f800283a 	ret

080034cc <MAXreg_rd>:

//reads register from MAX3421E via SPI
BYTE MAXreg_rd(BYTE reg) {
 80034cc:	defff804 	addi	sp,sp,-32
 80034d0:	dfc00715 	stw	ra,28(sp)
 80034d4:	df000615 	stw	fp,24(sp)
 80034d8:	df000604 	addi	fp,sp,24
 80034dc:	2005883a 	mov	r2,r4
 80034e0:	e0bfff05 	stb	r2,-4(fp)
	//if return code < 0 print an error
	//deselect MAX3421E (may not be necessary if you are using SPI peripheral)
	//return val
	int return_code;
	BYTE val;
	return_code = alt_avalon_spi_command(0x20, 0, 1, &reg, 1, &val, 0);
 80034e4:	e0ffff04 	addi	r3,fp,-4
 80034e8:	d8000215 	stw	zero,8(sp)
 80034ec:	e0bffe04 	addi	r2,fp,-8
 80034f0:	d8800115 	stw	r2,4(sp)
 80034f4:	00800044 	movi	r2,1
 80034f8:	d8800015 	stw	r2,0(sp)
 80034fc:	180f883a 	mov	r7,r3
 8003500:	01800044 	movi	r6,1
 8003504:	000b883a 	mov	r5,zero
 8003508:	01000804 	movi	r4,32
 800350c:	801345c0 	call	801345c <alt_avalon_spi_command>
 8003510:	e0bffd15 	stw	r2,-12(fp)
	if (return_code < 0)
 8003514:	e0bffd17 	ldw	r2,-12(fp)
 8003518:	1000030e 	bge	r2,zero,8003528 <MAXreg_rd+0x5c>
		printf("error");
 800351c:	01020074 	movhi	r4,2049
 8003520:	2112d104 	addi	r4,r4,19268
 8003524:	80055540 	call	8005554 <printf>
	return val;
 8003528:	e0bffe03 	ldbu	r2,-8(fp)
}
 800352c:	e037883a 	mov	sp,fp
 8003530:	dfc00117 	ldw	ra,4(sp)
 8003534:	df000017 	ldw	fp,0(sp)
 8003538:	dec00204 	addi	sp,sp,8
 800353c:	f800283a 	ret

08003540 <MAXbytes_rd>:
//multiple-byte write
//returns a pointer to a memory position after last written
BYTE* MAXbytes_rd(BYTE reg, BYTE nbytes, BYTE* data) {
 8003540:	defff704 	addi	sp,sp,-36
 8003544:	dfc00815 	stw	ra,32(sp)
 8003548:	df000715 	stw	fp,28(sp)
 800354c:	df000704 	addi	fp,sp,28
 8003550:	2007883a 	mov	r3,r4
 8003554:	2805883a 	mov	r2,r5
 8003558:	e1bfff15 	stw	r6,-4(fp)
 800355c:	e0fffd05 	stb	r3,-12(fp)
 8003560:	e0bffe05 	stb	r2,-8(fp)
	//read return code from SPI peripheral (see Intel documentation)
	//if return code < 0 print an error
	//deselect MAX3421E (may not be necessary if you are using SPI peripheral)
	//return (data + nbytes);
	int return_code;
	return_code = alt_avalon_spi_command(0x20, 0, 1, &reg, nbytes, data, 0);
 8003564:	e0bffe03 	ldbu	r2,-8(fp)
 8003568:	e13ffd04 	addi	r4,fp,-12
 800356c:	d8000215 	stw	zero,8(sp)
 8003570:	e0ffff17 	ldw	r3,-4(fp)
 8003574:	d8c00115 	stw	r3,4(sp)
 8003578:	d8800015 	stw	r2,0(sp)
 800357c:	200f883a 	mov	r7,r4
 8003580:	01800044 	movi	r6,1
 8003584:	000b883a 	mov	r5,zero
 8003588:	01000804 	movi	r4,32
 800358c:	801345c0 	call	801345c <alt_avalon_spi_command>
 8003590:	e0bffc15 	stw	r2,-16(fp)
	if (return_code < 0)
 8003594:	e0bffc17 	ldw	r2,-16(fp)
 8003598:	1000030e 	bge	r2,zero,80035a8 <MAXbytes_rd+0x68>
		printf("error");
 800359c:	01020074 	movhi	r4,2049
 80035a0:	2112d104 	addi	r4,r4,19268
 80035a4:	80055540 	call	8005554 <printf>
	return (data + nbytes);
 80035a8:	e0bffe03 	ldbu	r2,-8(fp)
 80035ac:	e0ffff17 	ldw	r3,-4(fp)
 80035b0:	1885883a 	add	r2,r3,r2
}
 80035b4:	e037883a 	mov	sp,fp
 80035b8:	dfc00117 	ldw	ra,4(sp)
 80035bc:	df000017 	ldw	fp,0(sp)
 80035c0:	dec00204 	addi	sp,sp,8
 80035c4:	f800283a 	ret

080035c8 <MAX3421E_reset>:

/* reset MAX3421E using chip reset bit. SPI configuration is not affected   */
void MAX3421E_reset(void) {
 80035c8:	defffd04 	addi	sp,sp,-12
 80035cc:	dfc00215 	stw	ra,8(sp)
 80035d0:	df000115 	stw	fp,4(sp)
 80035d4:	df000104 	addi	fp,sp,4
	//hardware reset, then software reset
	IOWR_ALTERA_AVALON_PIO_DATA(USB_RST_BASE, 0);
 80035d8:	0007883a 	mov	r3,zero
 80035dc:	00803404 	movi	r2,208
 80035e0:	10c00035 	stwio	r3,0(r2)
	usleep(1000000);
 80035e4:	010003f4 	movhi	r4,15
 80035e8:	21109004 	addi	r4,r4,16960
 80035ec:	80127b80 	call	80127b8 <usleep>
	IOWR_ALTERA_AVALON_PIO_DATA(USB_RST_BASE, 1);
 80035f0:	00c00044 	movi	r3,1
 80035f4:	00803404 	movi	r2,208
 80035f8:	10c00035 	stwio	r3,0(r2)
	BYTE tmp = 0;
 80035fc:	e03fff05 	stb	zero,-4(fp)
	MAXreg_wr( rUSBCTL, bmCHIPRES);      //Chip reset. This stops the oscillator
 8003600:	01400804 	movi	r5,32
 8003604:	01001e04 	movi	r4,120
 8003608:	80032d80 	call	80032d8 <MAXreg_wr>
	MAXreg_wr( rUSBCTL, 0x00);                          //Remove the reset
 800360c:	000b883a 	mov	r5,zero
 8003610:	01001e04 	movi	r4,120
 8003614:	80032d80 	call	80032d8 <MAXreg_wr>
	while (!(MAXreg_rd( rUSBIRQ) & bmOSCOKIRQ)) { //wait until the PLL stabilizes
 8003618:	00000806 	br	800363c <MAX3421E_reset+0x74>
		tmp++;                                      //timeout after 256 attempts
 800361c:	e0bfff03 	ldbu	r2,-4(fp)
 8003620:	10800044 	addi	r2,r2,1
 8003624:	e0bfff05 	stb	r2,-4(fp)
		if (tmp == 0) {
 8003628:	e0bfff03 	ldbu	r2,-4(fp)
 800362c:	1000031e 	bne	r2,zero,800363c <MAX3421E_reset+0x74>
			printf("reset timeout!");
 8003630:	01020074 	movhi	r4,2049
 8003634:	2112d304 	addi	r4,r4,19276
 8003638:	80055540 	call	8005554 <printf>
	usleep(1000000);
	IOWR_ALTERA_AVALON_PIO_DATA(USB_RST_BASE, 1);
	BYTE tmp = 0;
	MAXreg_wr( rUSBCTL, bmCHIPRES);      //Chip reset. This stops the oscillator
	MAXreg_wr( rUSBCTL, 0x00);                          //Remove the reset
	while (!(MAXreg_rd( rUSBIRQ) & bmOSCOKIRQ)) { //wait until the PLL stabilizes
 800363c:	01001a04 	movi	r4,104
 8003640:	80034cc0 	call	80034cc <MAXreg_rd>
 8003644:	10803fcc 	andi	r2,r2,255
 8003648:	1080004c 	andi	r2,r2,1
 800364c:	103ff326 	beq	r2,zero,800361c <__alt_data_end+0xfc00361c>
		tmp++;                                      //timeout after 256 attempts
		if (tmp == 0) {
			printf("reset timeout!");
		}
	}
}
 8003650:	0001883a 	nop
 8003654:	e037883a 	mov	sp,fp
 8003658:	dfc00117 	ldw	ra,4(sp)
 800365c:	df000017 	ldw	fp,0(sp)
 8003660:	dec00204 	addi	sp,sp,8
 8003664:	f800283a 	ret

08003668 <Vbus_power>:
/* turn USB power on/off                                                */
/* ON pin of VBUS switch (MAX4793 or similar) is connected to GPOUT7    */
/* OVERLOAD pin of Vbus switch is connected to GPIN7                    */
/* OVERLOAD state low. NO OVERLOAD or VBUS OFF state high.              */
BOOL Vbus_power(BOOL action) {
 8003668:	defffe04 	addi	sp,sp,-8
 800366c:	df000115 	stw	fp,4(sp)
 8003670:	df000104 	addi	fp,sp,4
 8003674:	e13fff15 	stw	r4,-4(fp)
	// power on/off successful
	return (1);
 8003678:	00800044 	movi	r2,1
}
 800367c:	e037883a 	mov	sp,fp
 8003680:	df000017 	ldw	fp,0(sp)
 8003684:	dec00104 	addi	sp,sp,4
 8003688:	f800283a 	ret

0800368c <MAX_busprobe>:

/* probe bus to determine device presense and speed */
void MAX_busprobe(void) {
 800368c:	defffd04 	addi	sp,sp,-12
 8003690:	dfc00215 	stw	ra,8(sp)
 8003694:	df000115 	stw	fp,4(sp)
 8003698:	df000104 	addi	fp,sp,4
	BYTE bus_sample;

//  MAXreg_wr(rHCTL,bmSAMPLEBUS);
	bus_sample = MAXreg_rd( rHRSL);            //Get J,K status
 800369c:	01003e04 	movi	r4,248
 80036a0:	80034cc0 	call	80034cc <MAXreg_rd>
 80036a4:	e0bfff05 	stb	r2,-4(fp)
	bus_sample &= ( bmJSTATUS | bmKSTATUS);      //zero the rest of the byte
 80036a8:	e0ffff03 	ldbu	r3,-4(fp)
 80036ac:	00bff004 	movi	r2,-64
 80036b0:	1884703a 	and	r2,r3,r2
 80036b4:	e0bfff05 	stb	r2,-4(fp)

	switch (bus_sample) {                   //start full-speed or low-speed host
 80036b8:	e0bfff03 	ldbu	r2,-4(fp)
 80036bc:	10c01020 	cmpeqi	r3,r2,64
 80036c0:	1800221e 	bne	r3,zero,800374c <MAX_busprobe+0xc0>
 80036c4:	10c01048 	cmpgei	r3,r2,65
 80036c8:	1800021e 	bne	r3,zero,80036d4 <MAX_busprobe+0x48>
 80036cc:	10003b26 	beq	r2,zero,80037bc <MAX_busprobe+0x130>
			MAXreg_wr( rMODE, MODE_FS_HOST); //start full-speed host
			usb_task_state = ( USB_DETACHED_SUBSTATE_WAIT_FOR_DEVICE);
		}
		break;
	} //end switch( bus_sample )
}
 80036d0:	00004a06 	br	80037fc <MAX_busprobe+0x170>

//  MAXreg_wr(rHCTL,bmSAMPLEBUS);
	bus_sample = MAXreg_rd( rHRSL);            //Get J,K status
	bus_sample &= ( bmJSTATUS | bmKSTATUS);      //zero the rest of the byte

	switch (bus_sample) {                   //start full-speed or low-speed host
 80036d4:	10c02020 	cmpeqi	r3,r2,128
 80036d8:	1800031e 	bne	r3,zero,80036e8 <MAX_busprobe+0x5c>
 80036dc:	10803020 	cmpeqi	r2,r2,192
 80036e0:	1000331e 	bne	r2,zero,80037b0 <MAX_busprobe+0x124>
			MAXreg_wr( rMODE, MODE_FS_HOST); //start full-speed host
			usb_task_state = ( USB_DETACHED_SUBSTATE_WAIT_FOR_DEVICE);
		}
		break;
	} //end switch( bus_sample )
}
 80036e4:	00004506 	br	80037fc <MAX_busprobe+0x170>
	bus_sample &= ( bmJSTATUS | bmKSTATUS);      //zero the rest of the byte

	switch (bus_sample) {                   //start full-speed or low-speed host
	case ( bmJSTATUS):
		/*kludgy*/
		if (usb_task_state != USB_ATTACHED_SUBSTATE_WAIT_RESET_COMPLETE) { //bus reset causes connection detect interrupt
 80036e8:	d0a00a03 	ldbu	r2,-32728(gp)
 80036ec:	10803fcc 	andi	r2,r2,255
 80036f0:	108004e0 	cmpeqi	r2,r2,19
 80036f4:	10003e1e 	bne	r2,zero,80037f0 <MAX_busprobe+0x164>
			if (!(MAXreg_rd( rMODE) & bmLOWSPEED)) {
 80036f8:	01003604 	movi	r4,216
 80036fc:	80034cc0 	call	80034cc <MAXreg_rd>
 8003700:	10803fcc 	andi	r2,r2,255
 8003704:	1080008c 	andi	r2,r2,2
 8003708:	1000071e 	bne	r2,zero,8003728 <MAX_busprobe+0x9c>
				MAXreg_wr( rMODE, MODE_FS_HOST);         //start full-speed host
 800370c:	01403244 	movi	r5,201
 8003710:	01003604 	movi	r4,216
 8003714:	80032d80 	call	80032d8 <MAXreg_wr>
				printf("Starting in full speed\n");
 8003718:	01020074 	movhi	r4,2049
 800371c:	2112d704 	addi	r4,r4,19292
 8003720:	80056700 	call	8005670 <puts>
 8003724:	00000606 	br	8003740 <MAX_busprobe+0xb4>
			} else {
				MAXreg_wr( rMODE, MODE_LS_HOST);    //start low-speed host
 8003728:	014032c4 	movi	r5,203
 800372c:	01003604 	movi	r4,216
 8003730:	80032d80 	call	80032d8 <MAXreg_wr>
				printf("Starting in low speed\n");
 8003734:	01020074 	movhi	r4,2049
 8003738:	2112dd04 	addi	r4,r4,19316
 800373c:	80056700 	call	8005670 <puts>
			}
			usb_task_state = ( USB_STATE_ATTACHED); //signal usb state machine to start attachment sequence
 8003740:	00800404 	movi	r2,16
 8003744:	d0a00a05 	stb	r2,-32728(gp)
		}
		break;
 8003748:	00002906 	br	80037f0 <MAX_busprobe+0x164>
	case ( bmKSTATUS):
		if (usb_task_state != USB_ATTACHED_SUBSTATE_WAIT_RESET_COMPLETE) { //bus reset causes connection detect interrupt
 800374c:	d0a00a03 	ldbu	r2,-32728(gp)
 8003750:	10803fcc 	andi	r2,r2,255
 8003754:	108004e0 	cmpeqi	r2,r2,19
 8003758:	1000271e 	bne	r2,zero,80037f8 <MAX_busprobe+0x16c>
			if (!(MAXreg_rd( rMODE) & bmLOWSPEED)) {
 800375c:	01003604 	movi	r4,216
 8003760:	80034cc0 	call	80034cc <MAXreg_rd>
 8003764:	10803fcc 	andi	r2,r2,255
 8003768:	1080008c 	andi	r2,r2,2
 800376c:	1000071e 	bne	r2,zero,800378c <MAX_busprobe+0x100>
				MAXreg_wr( rMODE, MODE_LS_HOST);   //start low-speed host
 8003770:	014032c4 	movi	r5,203
 8003774:	01003604 	movi	r4,216
 8003778:	80032d80 	call	80032d8 <MAXreg_wr>
				printf("Starting in low speed\n");
 800377c:	01020074 	movhi	r4,2049
 8003780:	2112dd04 	addi	r4,r4,19316
 8003784:	80056700 	call	8005670 <puts>
 8003788:	00000606 	br	80037a4 <MAX_busprobe+0x118>
			} else {
				MAXreg_wr( rMODE, MODE_FS_HOST);         //start full-speed host
 800378c:	01403244 	movi	r5,201
 8003790:	01003604 	movi	r4,216
 8003794:	80032d80 	call	80032d8 <MAXreg_wr>
				printf("Starting in full speed\n");
 8003798:	01020074 	movhi	r4,2049
 800379c:	2112d704 	addi	r4,r4,19292
 80037a0:	80056700 	call	8005670 <puts>
			}
			usb_task_state = ( USB_STATE_ATTACHED); //signal usb state machine to start attachment sequence
 80037a4:	00800404 	movi	r2,16
 80037a8:	d0a00a05 	stb	r2,-32728(gp)
		}
		break;
 80037ac:	00001206 	br	80037f8 <MAX_busprobe+0x16c>
	case ( bmSE1):              //illegal state
		usb_task_state = ( USB_DETACHED_SUBSTATE_ILLEGAL);
 80037b0:	00800104 	movi	r2,4
 80037b4:	d0a00a05 	stb	r2,-32728(gp)
		break;
 80037b8:	00001006 	br	80037fc <MAX_busprobe+0x170>
	case ( bmSE0):              //disconnected state
		if (!((usb_task_state & USB_STATE_MASK) == USB_STATE_DETACHED)) //if we came here from other than detached state
 80037bc:	d0a00a03 	ldbu	r2,-32728(gp)
 80037c0:	10803fcc 	andi	r2,r2,255
 80037c4:	10803c0c 	andi	r2,r2,240
 80037c8:	10000326 	beq	r2,zero,80037d8 <MAX_busprobe+0x14c>
			usb_task_state = ( USB_DETACHED_SUBSTATE_INITIALIZE); //clear device data structures
 80037cc:	00800044 	movi	r2,1
 80037d0:	d0a00a05 	stb	r2,-32728(gp)
		else {
			MAXreg_wr( rMODE, MODE_FS_HOST); //start full-speed host
			usb_task_state = ( USB_DETACHED_SUBSTATE_WAIT_FOR_DEVICE);
		}
		break;
 80037d4:	00000906 	br	80037fc <MAX_busprobe+0x170>
		break;
	case ( bmSE0):              //disconnected state
		if (!((usb_task_state & USB_STATE_MASK) == USB_STATE_DETACHED)) //if we came here from other than detached state
			usb_task_state = ( USB_DETACHED_SUBSTATE_INITIALIZE); //clear device data structures
		else {
			MAXreg_wr( rMODE, MODE_FS_HOST); //start full-speed host
 80037d8:	01403244 	movi	r5,201
 80037dc:	01003604 	movi	r4,216
 80037e0:	80032d80 	call	80032d8 <MAXreg_wr>
			usb_task_state = ( USB_DETACHED_SUBSTATE_WAIT_FOR_DEVICE);
 80037e4:	008000c4 	movi	r2,3
 80037e8:	d0a00a05 	stb	r2,-32728(gp)
		}
		break;
 80037ec:	00000306 	br	80037fc <MAX_busprobe+0x170>
				MAXreg_wr( rMODE, MODE_LS_HOST);    //start low-speed host
				printf("Starting in low speed\n");
			}
			usb_task_state = ( USB_STATE_ATTACHED); //signal usb state machine to start attachment sequence
		}
		break;
 80037f0:	0001883a 	nop
 80037f4:	00000106 	br	80037fc <MAX_busprobe+0x170>
				MAXreg_wr( rMODE, MODE_FS_HOST);         //start full-speed host
				printf("Starting in full speed\n");
			}
			usb_task_state = ( USB_STATE_ATTACHED); //signal usb state machine to start attachment sequence
		}
		break;
 80037f8:	0001883a 	nop
			MAXreg_wr( rMODE, MODE_FS_HOST); //start full-speed host
			usb_task_state = ( USB_DETACHED_SUBSTATE_WAIT_FOR_DEVICE);
		}
		break;
	} //end switch( bus_sample )
}
 80037fc:	0001883a 	nop
 8003800:	e037883a 	mov	sp,fp
 8003804:	dfc00117 	ldw	ra,4(sp)
 8003808:	df000017 	ldw	fp,0(sp)
 800380c:	dec00204 	addi	sp,sp,8
 8003810:	f800283a 	ret

08003814 <MAX3421E_init>:
/* MAX3421E initialization after power-on   */
void MAX3421E_init(void) {
 8003814:	defffe04 	addi	sp,sp,-8
 8003818:	dfc00115 	stw	ra,4(sp)
 800381c:	df000015 	stw	fp,0(sp)
 8003820:	d839883a 	mov	fp,sp
	/* Configure full-duplex SPI, interrupt pulse   */
	MAXreg_wr( rPINCTL, (bmFDUPSPI + bmINTLEVEL + bmGPXB)); //Full-duplex SPI, level interrupt, GPX
 8003824:	01400684 	movi	r5,26
 8003828:	01002204 	movi	r4,136
 800382c:	80032d80 	call	80032d8 <MAXreg_wr>
	MAX3421E_reset();                                //stop/start the oscillator
 8003830:	80035c80 	call	80035c8 <MAX3421E_reset>
	/* configure power switch   */
	Vbus_power( OFF);                                      //turn Vbus power off
 8003834:	0009883a 	mov	r4,zero
 8003838:	80036680 	call	8003668 <Vbus_power>
	MAXreg_wr( rGPINIEN, bmGPINIEN7); //enable interrupt on GPIN7 (power switch overload flag)
 800383c:	01402004 	movi	r5,128
 8003840:	01002e04 	movi	r4,184
 8003844:	80032d80 	call	80032d8 <MAXreg_wr>
	Vbus_power( ON);
 8003848:	01000044 	movi	r4,1
 800384c:	80036680 	call	8003668 <Vbus_power>
	/* configure host operation */
	MAXreg_wr( rMODE, bmDPPULLDN | bmDMPULLDN | bmHOST | bmSEPIRQ); // set pull-downs, SOF, Host, Separate GPIN IRQ on GPX
 8003850:	01403444 	movi	r5,209
 8003854:	01003604 	movi	r4,216
 8003858:	80032d80 	call	80032d8 <MAXreg_wr>
	//MAXreg_wr( rHIEN, bmFRAMEIE|bmCONDETIE|bmBUSEVENTIE );                      // enable SOF, connection detection, bus event IRQs
	MAXreg_wr( rHIEN, bmCONDETIE);                        //connection detection
 800385c:	01400804 	movi	r5,32
 8003860:	01003404 	movi	r4,208
 8003864:	80032d80 	call	80032d8 <MAXreg_wr>
	/* HXFRDNIRQ is checked in Dispatch packet function */
	MAXreg_wr(rHCTL, bmSAMPLEBUS);        // update the JSTATUS and KSTATUS bits
 8003868:	01400104 	movi	r5,4
 800386c:	01003a04 	movi	r4,232
 8003870:	80032d80 	call	80032d8 <MAXreg_wr>
	MAX_busprobe();                             //check if anything is connected
 8003874:	800368c0 	call	800368c <MAX_busprobe>
	MAXreg_wr( rHIRQ, bmCONDETIRQ); //clear connection detect interrupt                 
 8003878:	01400804 	movi	r5,32
 800387c:	01003204 	movi	r4,200
 8003880:	80032d80 	call	80032d8 <MAXreg_wr>
	MAXreg_wr( rCPUCTL, 0x01);                            //enable interrupt pin
 8003884:	01400044 	movi	r5,1
 8003888:	01002004 	movi	r4,128
 800388c:	80032d80 	call	80032d8 <MAXreg_wr>
}
 8003890:	0001883a 	nop
 8003894:	e037883a 	mov	sp,fp
 8003898:	dfc00117 	ldw	ra,4(sp)
 800389c:	df000017 	ldw	fp,0(sp)
 80038a0:	dec00204 	addi	sp,sp,8
 80038a4:	f800283a 	ret

080038a8 <MAX3421E_Task>:

/* MAX3421 state change task and interrupt handler */
void MAX3421E_Task(void) {
 80038a8:	defffe04 	addi	sp,sp,-8
 80038ac:	dfc00115 	stw	ra,4(sp)
 80038b0:	df000015 	stw	fp,0(sp)
 80038b4:	d839883a 	mov	fp,sp
	if ( IORD_ALTERA_AVALON_PIO_DATA(USB_IRQ_BASE) == 0) {
 80038b8:	00803c04 	movi	r2,240
 80038bc:	10800037 	ldwio	r2,0(r2)
 80038c0:	1000041e 	bne	r2,zero,80038d4 <MAX3421E_Task+0x2c>
		printf("MAX interrupt\n\r");
 80038c4:	01020074 	movhi	r4,2049
 80038c8:	2112e304 	addi	r4,r4,19340
 80038cc:	80055540 	call	8005554 <printf>
		MaxIntHandler();
 80038d0:	800390c0 	call	800390c <MaxIntHandler>
	}
	if ( IORD_ALTERA_AVALON_PIO_DATA(USB_GPX_BASE) == 1) {
 80038d4:	00803804 	movi	r2,224
 80038d8:	10800037 	ldwio	r2,0(r2)
 80038dc:	10800058 	cmpnei	r2,r2,1
 80038e0:	1000041e 	bne	r2,zero,80038f4 <MAX3421E_Task+0x4c>
		printf("GPX interrupt\n\r");
 80038e4:	01020074 	movhi	r4,2049
 80038e8:	2112e704 	addi	r4,r4,19356
 80038ec:	80055540 	call	8005554 <printf>
		MaxGpxHandler();
 80038f0:	80039d80 	call	80039d8 <MaxGpxHandler>
	}
}
 80038f4:	0001883a 	nop
 80038f8:	e037883a 	mov	sp,fp
 80038fc:	dfc00117 	ldw	ra,4(sp)
 8003900:	df000017 	ldw	fp,0(sp)
 8003904:	dec00204 	addi	sp,sp,8
 8003908:	f800283a 	ret

0800390c <MaxIntHandler>:

void MaxIntHandler(void) {
 800390c:	defffd04 	addi	sp,sp,-12
 8003910:	dfc00215 	stw	ra,8(sp)
 8003914:	df000115 	stw	fp,4(sp)
 8003918:	df000104 	addi	fp,sp,4
	BYTE HIRQ;
	BYTE HIRQ_sendback = 0x00;
 800391c:	e03fff05 	stb	zero,-4(fp)
	HIRQ = MAXreg_rd( rHIRQ);                  //determine interrupt source
 8003920:	01003204 	movi	r4,200
 8003924:	80034cc0 	call	80034cc <MAXreg_rd>
 8003928:	e0bfff45 	stb	r2,-3(fp)
	printf("IRQ: %x\n", HIRQ);
 800392c:	e0bfff43 	ldbu	r2,-3(fp)
 8003930:	100b883a 	mov	r5,r2
 8003934:	01020074 	movhi	r4,2049
 8003938:	2112eb04 	addi	r4,r4,19372
 800393c:	80055540 	call	8005554 <printf>
	if (HIRQ & bmFRAMEIRQ) {                   //->1ms SOF interrupt handler
 8003940:	e0bfff43 	ldbu	r2,-3(fp)
 8003944:	1080100c 	andi	r2,r2,64
 8003948:	10000326 	beq	r2,zero,8003958 <MaxIntHandler+0x4c>
		HIRQ_sendback |= bmFRAMEIRQ;
 800394c:	e0bfff03 	ldbu	r2,-4(fp)
 8003950:	10801014 	ori	r2,r2,64
 8003954:	e0bfff05 	stb	r2,-4(fp)
	}                   //end FRAMEIRQ handling

	if (HIRQ & bmCONDETIRQ) {
 8003958:	e0bfff43 	ldbu	r2,-3(fp)
 800395c:	1080080c 	andi	r2,r2,32
 8003960:	10000426 	beq	r2,zero,8003974 <MaxIntHandler+0x68>
		MAX_busprobe();
 8003964:	800368c0 	call	800368c <MAX_busprobe>
		HIRQ_sendback |= bmCONDETIRQ;      //set sendback to 1 to clear register
 8003968:	e0bfff03 	ldbu	r2,-4(fp)
 800396c:	10800814 	ori	r2,r2,32
 8003970:	e0bfff05 	stb	r2,-4(fp)
	}
	if (HIRQ & bmSNDBAVIRQ) //if the send buffer is clear (previous transfer completed without issue)
 8003974:	e0bfff43 	ldbu	r2,-3(fp)
 8003978:	1080020c 	andi	r2,r2,8
 800397c:	10000326 	beq	r2,zero,800398c <MaxIntHandler+0x80>
	{
		MAXreg_wr(rSNDBC, 0x00);//clear the send buffer (not really necessary, but clears interrupt)
 8003980:	000b883a 	mov	r5,zero
 8003984:	01000e04 	movi	r4,56
 8003988:	80032d80 	call	80032d8 <MAXreg_wr>
	}
	if (HIRQ & bmBUSEVENTIRQ) {           //bus event is either reset or suspend
 800398c:	e0bfff43 	ldbu	r2,-3(fp)
 8003990:	1080004c 	andi	r2,r2,1
 8003994:	10000626 	beq	r2,zero,80039b0 <MaxIntHandler+0xa4>
		usb_task_state++;                       //advance USB task state machine
 8003998:	d0a00a03 	ldbu	r2,-32728(gp)
 800399c:	10800044 	addi	r2,r2,1
 80039a0:	d0a00a05 	stb	r2,-32728(gp)
		HIRQ_sendback |= bmBUSEVENTIRQ;
 80039a4:	e0bfff03 	ldbu	r2,-4(fp)
 80039a8:	10800054 	ori	r2,r2,1
 80039ac:	e0bfff05 	stb	r2,-4(fp)
	}
	/* End HIRQ interrupts handling, clear serviced IRQs    */
	MAXreg_wr( rHIRQ, HIRQ_sendback); //write '1' to CONDETIRQ to ack bus state change
 80039b0:	e0bfff03 	ldbu	r2,-4(fp)
 80039b4:	100b883a 	mov	r5,r2
 80039b8:	01003204 	movi	r4,200
 80039bc:	80032d80 	call	80032d8 <MAXreg_wr>
}
 80039c0:	0001883a 	nop
 80039c4:	e037883a 	mov	sp,fp
 80039c8:	dfc00117 	ldw	ra,4(sp)
 80039cc:	df000017 	ldw	fp,0(sp)
 80039d0:	dec00204 	addi	sp,sp,8
 80039d4:	f800283a 	ret

080039d8 <MaxGpxHandler>:

void MaxGpxHandler(void) {
 80039d8:	defffd04 	addi	sp,sp,-12
 80039dc:	dfc00215 	stw	ra,8(sp)
 80039e0:	df000115 	stw	fp,4(sp)
 80039e4:	df000104 	addi	fp,sp,4
	BYTE GPINIRQ;
	GPINIRQ = MAXreg_rd( rGPINIRQ);            //read both IRQ registers
 80039e8:	01002c04 	movi	r4,176
 80039ec:	80034cc0 	call	80034cc <MAXreg_rd>
 80039f0:	e0bfff05 	stb	r2,-4(fp)
}
 80039f4:	0001883a 	nop
 80039f8:	e037883a 	mov	sp,fp
 80039fc:	dfc00117 	ldw	ra,4(sp)
 8003a00:	df000017 	ldw	fp,0(sp)
 8003a04:	dec00204 	addi	sp,sp,8
 8003a08:	f800283a 	ret

08003a0c <XferCtrlReq>:
/* depending on request. Actual requests are defined as macros                                                                                      */
/* return codes:                */
/* 00       =   success         */
/* 01-0f    =   non-zero HRSLT  */
BYTE XferCtrlReq( BYTE addr, BYTE ep, BYTE bmReqType, BYTE bRequest, BYTE wValLo, BYTE wValHi, WORD wInd, WORD nbytes, BYTE* dataptr )
{
 8003a0c:	defff104 	addi	sp,sp,-60
 8003a10:	dfc00e15 	stw	ra,56(sp)
 8003a14:	df000d15 	stw	fp,52(sp)
 8003a18:	df000d04 	addi	fp,sp,52
 8003a1c:	2015883a 	mov	r10,r4
 8003a20:	2813883a 	mov	r9,r5
 8003a24:	3011883a 	mov	r8,r6
 8003a28:	380d883a 	mov	r6,r7
 8003a2c:	e1400217 	ldw	r5,8(fp)
 8003a30:	e1000317 	ldw	r4,12(fp)
 8003a34:	e0c00417 	ldw	r3,16(fp)
 8003a38:	e0800517 	ldw	r2,20(fp)
 8003a3c:	e2bff805 	stb	r10,-32(fp)
 8003a40:	e27ff905 	stb	r9,-28(fp)
 8003a44:	e23ffa05 	stb	r8,-24(fp)
 8003a48:	e1bffb05 	stb	r6,-20(fp)
 8003a4c:	e17ffc05 	stb	r5,-16(fp)
 8003a50:	e13ffd05 	stb	r4,-12(fp)
 8003a54:	e0fffe0d 	sth	r3,-8(fp)
 8003a58:	e0bfff0d 	sth	r2,-4(fp)
 BOOL direction = FALSE;        //request direction, IN or OUT
 8003a5c:	e03ff415 	stw	zero,-48(fp)
 BYTE datastage = 1; //request data stage present or absent
 8003a60:	00800044 	movi	r2,1
 8003a64:	e0bff505 	stb	r2,-44(fp)
 BYTE rcode;
 SETUP_PKT setup_pkt;
    if( dataptr == NULL ) {
 8003a68:	e0800617 	ldw	r2,24(fp)
 8003a6c:	1000011e 	bne	r2,zero,8003a74 <XferCtrlReq+0x68>
        datastage = 0;
 8003a70:	e03ff505 	stb	zero,-44(fp)
    }
    MAXreg_wr( rPERADDR, addr );                    //set peripheral address
 8003a74:	e0bff803 	ldbu	r2,-32(fp)
 8003a78:	100b883a 	mov	r5,r2
 8003a7c:	01003804 	movi	r4,224
 8003a80:	80032d80 	call	80032d8 <MAXreg_wr>
    /* fill in setup packet */
    if( bmReqType & 0x80 ) {
 8003a84:	e0bffa03 	ldbu	r2,-24(fp)
 8003a88:	10803fcc 	andi	r2,r2,255
 8003a8c:	1080201c 	xori	r2,r2,128
 8003a90:	10bfe004 	addi	r2,r2,-128
 8003a94:	1000020e 	bge	r2,zero,8003aa0 <XferCtrlReq+0x94>
        direction = TRUE;                   		//determine request direction
 8003a98:	00800044 	movi	r2,1
 8003a9c:	e0bff415 	stw	r2,-48(fp)
    }
    /* fill in setup packet */
    setup_pkt.ReqType_u.bmRequestType = bmReqType;
 8003aa0:	e0bffa03 	ldbu	r2,-24(fp)
 8003aa4:	e0bff585 	stb	r2,-42(fp)
    setup_pkt.bRequest = bRequest;
 8003aa8:	e0bffb03 	ldbu	r2,-20(fp)
 8003aac:	e0bff5c5 	stb	r2,-41(fp)
    setup_pkt.wVal_u.wValueLo = wValLo;
 8003ab0:	e0bffc03 	ldbu	r2,-16(fp)
 8003ab4:	e0bff605 	stb	r2,-40(fp)
    setup_pkt.wVal_u.wValueHi = wValHi;
 8003ab8:	e0bffd03 	ldbu	r2,-12(fp)
 8003abc:	e0bff645 	stb	r2,-39(fp)
    setup_pkt.wIndex = wInd;
 8003ac0:	e0bffe0b 	ldhu	r2,-8(fp)
 8003ac4:	e0bff68d 	sth	r2,-38(fp)
    setup_pkt.wLength = nbytes;
 8003ac8:	e0bfff0b 	ldhu	r2,-4(fp)
 8003acc:	e0bff70d 	sth	r2,-36(fp)
    MAXbytes_wr( rSUDFIFO, 8, (BYTE *)&setup_pkt );     //transfer to setup packet FIFO
 8003ad0:	e0bff584 	addi	r2,fp,-42
 8003ad4:	100d883a 	mov	r6,r2
 8003ad8:	01400204 	movi	r5,8
 8003adc:	01000804 	movi	r4,32
 8003ae0:	80033600 	call	8003360 <MAXbytes_wr>
    rcode = XferDispatchPkt( tokSETUP, ep );            //dispatch packet
 8003ae4:	e0bff903 	ldbu	r2,-28(fp)
 8003ae8:	100b883a 	mov	r5,r2
 8003aec:	01000404 	movi	r4,16
 8003af0:	8003cb40 	call	8003cb4 <XferDispatchPkt>
 8003af4:	e0bff545 	stb	r2,-43(fp)
    if( rcode ) {                                       //return HRSLT if not zero
 8003af8:	e0bff543 	ldbu	r2,-43(fp)
 8003afc:	10000226 	beq	r2,zero,8003b08 <XferCtrlReq+0xfc>
        return( rcode );
 8003b00:	e0bff543 	ldbu	r2,-43(fp)
 8003b04:	00000f06 	br	8003b44 <XferCtrlReq+0x138>
    }
    rcode = ctrl_xfers[ datastage ]( addr, ep, nbytes, dataptr, direction );    //call data stage or no data stage transfer
 8003b08:	e0bff503 	ldbu	r2,-44(fp)
 8003b0c:	1085883a 	add	r2,r2,r2
 8003b10:	1087883a 	add	r3,r2,r2
 8003b14:	d0a00804 	addi	r2,gp,-32736
 8003b18:	1885883a 	add	r2,r3,r2
 8003b1c:	10800017 	ldw	r2,0(r2)
 8003b20:	e13ff803 	ldbu	r4,-32(fp)
 8003b24:	e17ff903 	ldbu	r5,-28(fp)
 8003b28:	e1bfff0b 	ldhu	r6,-4(fp)
 8003b2c:	e0fff417 	ldw	r3,-48(fp)
 8003b30:	d8c00015 	stw	r3,0(sp)
 8003b34:	e1c00617 	ldw	r7,24(fp)
 8003b38:	103ee83a 	callr	r2
 8003b3c:	e0bff545 	stb	r2,-43(fp)
    return( rcode );
 8003b40:	e0bff543 	ldbu	r2,-43(fp)
}
 8003b44:	e037883a 	mov	sp,fp
 8003b48:	dfc00117 	ldw	ra,4(sp)
 8003b4c:	df000017 	ldw	fp,0(sp)
 8003b50:	dec00204 	addi	sp,sp,8
 8003b54:	f800283a 	ret

08003b58 <XferCtrlData>:
/* Control transfer with data stage */
BYTE XferCtrlData( BYTE addr, BYTE ep, WORD nbytes, BYTE* dataptr, BOOL direction )
{
 8003b58:	defff804 	addi	sp,sp,-32
 8003b5c:	dfc00715 	stw	ra,28(sp)
 8003b60:	df000615 	stw	fp,24(sp)
 8003b64:	df000604 	addi	fp,sp,24
 8003b68:	2807883a 	mov	r3,r5
 8003b6c:	3005883a 	mov	r2,r6
 8003b70:	e1ffff15 	stw	r7,-4(fp)
 8003b74:	e13ffc05 	stb	r4,-16(fp)
 8003b78:	e0fffd05 	stb	r3,-12(fp)
 8003b7c:	e0bffe0d 	sth	r2,-8(fp)
  BYTE rcode;

    //MAXreg_wr( rHCTL, bmRCVTOG1 );       //set toggle to DATA1
    if( direction ) {   //IN transfer
 8003b80:	e0800217 	ldw	r2,8(fp)
 8003b84:	10002826 	beq	r2,zero,8003c28 <XferCtrlData+0xd0>
        devtable[ addr ].epinfo[ ep ].rcvToggle = bmRCVTOG1;
 8003b88:	e0fffc03 	ldbu	r3,-16(fp)
 8003b8c:	008200b4 	movhi	r2,2050
 8003b90:	10a1ca04 	addi	r2,r2,-30936
 8003b94:	180690fa 	slli	r3,r3,3
 8003b98:	10c5883a 	add	r2,r2,r3
 8003b9c:	10c00017 	ldw	r3,0(r2)
 8003ba0:	e0bffd03 	ldbu	r2,-12(fp)
 8003ba4:	100490fa 	slli	r2,r2,3
 8003ba8:	1885883a 	add	r2,r3,r2
 8003bac:	00c00804 	movi	r3,32
 8003bb0:	10c00185 	stb	r3,6(r2)
        rcode = XferInTransfer( addr, ep, nbytes, dataptr, devtable[ addr ].epinfo[ ep ].MaxPktSize );
 8003bb4:	e13ffc03 	ldbu	r4,-16(fp)
 8003bb8:	e17ffd03 	ldbu	r5,-12(fp)
 8003bbc:	e1bffe0b 	ldhu	r6,-8(fp)
 8003bc0:	e0fffc03 	ldbu	r3,-16(fp)
 8003bc4:	008200b4 	movhi	r2,2050
 8003bc8:	10a1ca04 	addi	r2,r2,-30936
 8003bcc:	180690fa 	slli	r3,r3,3
 8003bd0:	10c5883a 	add	r2,r2,r3
 8003bd4:	10c00017 	ldw	r3,0(r2)
 8003bd8:	e0bffd03 	ldbu	r2,-12(fp)
 8003bdc:	100490fa 	slli	r2,r2,3
 8003be0:	1885883a 	add	r2,r3,r2
 8003be4:	1080008b 	ldhu	r2,2(r2)
 8003be8:	10803fcc 	andi	r2,r2,255
 8003bec:	d8800015 	stw	r2,0(sp)
 8003bf0:	e1ffff17 	ldw	r7,-4(fp)
 8003bf4:	8003e300 	call	8003e30 <XferInTransfer>
 8003bf8:	e0bffb05 	stb	r2,-20(fp)
        if( rcode ) {
 8003bfc:	e0bffb03 	ldbu	r2,-20(fp)
 8003c00:	10000226 	beq	r2,zero,8003c0c <XferCtrlData+0xb4>
        return( rcode );
 8003c04:	e0bffb03 	ldbu	r2,-20(fp)
 8003c08:	00000806 	br	8003c2c <XferCtrlData+0xd4>
        }
        rcode = XferDispatchPkt( tokOUTHS, ep );
 8003c0c:	e0bffd03 	ldbu	r2,-12(fp)
 8003c10:	100b883a 	mov	r5,r2
 8003c14:	01002804 	movi	r4,160
 8003c18:	8003cb40 	call	8003cb4 <XferDispatchPkt>
 8003c1c:	e0bffb05 	stb	r2,-20(fp)
        return( rcode );
 8003c20:	e0bffb03 	ldbu	r2,-20(fp)
 8003c24:	00000106 	br	8003c2c <XferCtrlData+0xd4>
    }
    else {              //OUT not implemented
        return( 0xff );
 8003c28:	00bfffc4 	movi	r2,-1
    }
}
 8003c2c:	e037883a 	mov	sp,fp
 8003c30:	dfc00117 	ldw	ra,4(sp)
 8003c34:	df000017 	ldw	fp,0(sp)
 8003c38:	dec00204 	addi	sp,sp,8
 8003c3c:	f800283a 	ret

08003c40 <XferCtrlND>:
/* Control transfer with status stage and no data stage */
BYTE XferCtrlND( BYTE addr, BYTE ep, WORD nbytes, BYTE* dataptr, BOOL direction )
{
 8003c40:	defff904 	addi	sp,sp,-28
 8003c44:	dfc00615 	stw	ra,24(sp)
 8003c48:	df000515 	stw	fp,20(sp)
 8003c4c:	df000504 	addi	fp,sp,20
 8003c50:	2807883a 	mov	r3,r5
 8003c54:	3005883a 	mov	r2,r6
 8003c58:	e1ffff15 	stw	r7,-4(fp)
 8003c5c:	e13ffc05 	stb	r4,-16(fp)
 8003c60:	e0fffd05 	stb	r3,-12(fp)
 8003c64:	e0bffe0d 	sth	r2,-8(fp)
  BYTE rcode;
    if( direction ) { //GET
 8003c68:	e0800217 	ldw	r2,8(fp)
 8003c6c:	10000626 	beq	r2,zero,8003c88 <XferCtrlND+0x48>
        rcode = XferDispatchPkt( tokOUTHS, ep );
 8003c70:	e0bffd03 	ldbu	r2,-12(fp)
 8003c74:	100b883a 	mov	r5,r2
 8003c78:	01002804 	movi	r4,160
 8003c7c:	8003cb40 	call	8003cb4 <XferDispatchPkt>
 8003c80:	e0bffb05 	stb	r2,-20(fp)
 8003c84:	00000506 	br	8003c9c <XferCtrlND+0x5c>
    }
    else {
        rcode = XferDispatchPkt( tokINHS, ep );
 8003c88:	e0bffd03 	ldbu	r2,-12(fp)
 8003c8c:	100b883a 	mov	r5,r2
 8003c90:	01002004 	movi	r4,128
 8003c94:	8003cb40 	call	8003cb4 <XferDispatchPkt>
 8003c98:	e0bffb05 	stb	r2,-20(fp)
    }
    return( rcode );
 8003c9c:	e0bffb03 	ldbu	r2,-20(fp)
}
 8003ca0:	e037883a 	mov	sp,fp
 8003ca4:	dfc00117 	ldw	ra,4(sp)
 8003ca8:	df000017 	ldw	fp,0(sp)
 8003cac:	dec00204 	addi	sp,sp,8
 8003cb0:	f800283a 	ret

08003cb4 <XferDispatchPkt>:
/* Result code: 0 success, nonzero = error condition                                                */
/* If NAK, tries to re-send up to USB_NAK_LIMIT times                                               */
/* If bus timeout, re-sends up to USB_RETRY_LIMIT times                                             */
/* return codes 0x00-0x0f are HRSLT( 0x00 being success ), 0xff means timeout                       */
BYTE XferDispatchPkt( BYTE token, BYTE ep )
{
 8003cb4:	defff904 	addi	sp,sp,-28
 8003cb8:	dfc00615 	stw	ra,24(sp)
 8003cbc:	df000515 	stw	fp,20(sp)
 8003cc0:	df000504 	addi	fp,sp,20
 8003cc4:	2007883a 	mov	r3,r4
 8003cc8:	2805883a 	mov	r2,r5
 8003ccc:	e0fffe05 	stb	r3,-8(fp)
 8003cd0:	e0bfff05 	stb	r2,-4(fp)
 * alt_nticks() returns the elapsed number of system clock ticks since reset.
 */

static ALT_INLINE alt_u32 ALT_ALWAYS_INLINE alt_nticks (void)
{
  return _alt_nticks;
 8003cd4:	d0a70217 	ldw	r2,-25592(gp)
 DWORD timeout = (alt_nticks()*1000)/alt_ticks_per_second() + USB_XFER_TIMEOUT;
 8003cd8:	0140fa04 	movi	r5,1000
 8003cdc:	1009883a 	mov	r4,r2
 8003ce0:	8004a580 	call	8004a58 <__mulsi3>
 8003ce4:	1007883a 	mov	r3,r2
 * Obtain the system clock rate in ticks/s. 
 */

static ALT_INLINE alt_u32 ALT_ALWAYS_INLINE alt_ticks_per_second (void)
{
  return _alt_tick_rate;
 8003ce8:	d0a70117 	ldw	r2,-25596(gp)
 8003cec:	100b883a 	mov	r5,r2
 8003cf0:	1809883a 	mov	r4,r3
 8003cf4:	800499c0 	call	800499c <__udivsi3>
 8003cf8:	1084e204 	addi	r2,r2,5000
 8003cfc:	e0bffc15 	stw	r2,-16(fp)
 BYTE tmpdata;
 BYTE rcode;
 char retry_count = 0;
 8003d00:	e03ffb45 	stb	zero,-19(fp)
 BYTE nak_count = 0;
 8003d04:	e03ffb85 	stb	zero,-18(fp)

    while( 1 ) {
        MAXreg_wr( rHXFR, ( token|ep ));            //launch the transfer
 8003d08:	e0fffe03 	ldbu	r3,-8(fp)
 8003d0c:	e0bfff03 	ldbu	r2,-4(fp)
 8003d10:	1884b03a 	or	r2,r3,r2
 8003d14:	10803fcc 	andi	r2,r2,255
 8003d18:	100b883a 	mov	r5,r2
 8003d1c:	01003c04 	movi	r4,240
 8003d20:	80032d80 	call	80032d8 <MAXreg_wr>
        rcode = 0xff;
 8003d24:	00bfffc4 	movi	r2,-1
 8003d28:	e0bffb05 	stb	r2,-20(fp)
        while( (alt_nticks()*1000)/alt_ticks_per_second() < timeout ) {
 8003d2c:	00000d06 	br	8003d64 <XferDispatchPkt+0xb0>
            tmpdata = MAXreg_rd( rHIRQ );
 8003d30:	01003204 	movi	r4,200
 8003d34:	80034cc0 	call	80034cc <MAXreg_rd>
 8003d38:	e0bffd05 	stb	r2,-12(fp)
            if( tmpdata & bmHXFRDNIRQ ) {
 8003d3c:	e0bffd03 	ldbu	r2,-12(fp)
 8003d40:	10803fcc 	andi	r2,r2,255
 8003d44:	1080201c 	xori	r2,r2,128
 8003d48:	10bfe004 	addi	r2,r2,-128
 8003d4c:	1000050e 	bge	r2,zero,8003d64 <XferDispatchPkt+0xb0>
                MAXreg_wr( rHIRQ, bmHXFRDNIRQ );    //clear the interrupt
 8003d50:	01402004 	movi	r5,128
 8003d54:	01003204 	movi	r4,200
 8003d58:	80032d80 	call	80032d8 <MAXreg_wr>
                rcode = 0x00;
 8003d5c:	e03ffb05 	stb	zero,-20(fp)
                break;
 8003d60:	00000c06 	br	8003d94 <XferDispatchPkt+0xe0>
 * alt_nticks() returns the elapsed number of system clock ticks since reset.
 */

static ALT_INLINE alt_u32 ALT_ALWAYS_INLINE alt_nticks (void)
{
  return _alt_nticks;
 8003d64:	d0a70217 	ldw	r2,-25592(gp)
 BYTE nak_count = 0;

    while( 1 ) {
        MAXreg_wr( rHXFR, ( token|ep ));            //launch the transfer
        rcode = 0xff;
        while( (alt_nticks()*1000)/alt_ticks_per_second() < timeout ) {
 8003d68:	0140fa04 	movi	r5,1000
 8003d6c:	1009883a 	mov	r4,r2
 8003d70:	8004a580 	call	8004a58 <__mulsi3>
 8003d74:	1007883a 	mov	r3,r2
 * Obtain the system clock rate in ticks/s. 
 */

static ALT_INLINE alt_u32 ALT_ALWAYS_INLINE alt_ticks_per_second (void)
{
  return _alt_tick_rate;
 8003d78:	d0a70117 	ldw	r2,-25596(gp)
 8003d7c:	100b883a 	mov	r5,r2
 8003d80:	1809883a 	mov	r4,r3
 8003d84:	800499c0 	call	800499c <__udivsi3>
 8003d88:	1007883a 	mov	r3,r2
 8003d8c:	e0bffc17 	ldw	r2,-16(fp)
 8003d90:	18bfe736 	bltu	r3,r2,8003d30 <__alt_data_end+0xfc003d30>
                MAXreg_wr( rHIRQ, bmHXFRDNIRQ );    //clear the interrupt
                rcode = 0x00;
                break;
            }
        }
        if( rcode != 0x00 ) {               //exit if timeout
 8003d94:	e0bffb03 	ldbu	r2,-20(fp)
 8003d98:	10000226 	beq	r2,zero,8003da4 <XferDispatchPkt+0xf0>
            return( rcode );
 8003d9c:	e0bffb03 	ldbu	r2,-20(fp)
 8003da0:	00001e06 	br	8003e1c <XferDispatchPkt+0x168>
        }
        rcode = ( MAXreg_rd( rHRSL ) & 0x0f );
 8003da4:	01003e04 	movi	r4,248
 8003da8:	80034cc0 	call	80034cc <MAXreg_rd>
 8003dac:	108003cc 	andi	r2,r2,15
 8003db0:	e0bffb05 	stb	r2,-20(fp)
        if( rcode == hrNAK ) {
 8003db4:	e0bffb03 	ldbu	r2,-20(fp)
 8003db8:	10800118 	cmpnei	r2,r2,4
 8003dbc:	1000071e 	bne	r2,zero,8003ddc <XferDispatchPkt+0x128>
            nak_count++;
 8003dc0:	e0bffb83 	ldbu	r2,-18(fp)
 8003dc4:	10800044 	addi	r2,r2,1
 8003dc8:	e0bffb85 	stb	r2,-18(fp)
            if( nak_count == USB_NAK_LIMIT ) {
 8003dcc:	e0bffb83 	ldbu	r2,-18(fp)
 8003dd0:	10803218 	cmpnei	r2,r2,200
 8003dd4:	10000b1e 	bne	r2,zero,8003e04 <XferDispatchPkt+0x150>
                break;
 8003dd8:	00000f06 	br	8003e18 <XferDispatchPkt+0x164>
            }
            else {
                continue;
            }
        }
        if( rcode == hrTIMEOUT ) {
 8003ddc:	e0bffb03 	ldbu	r2,-20(fp)
 8003de0:	10800398 	cmpnei	r2,r2,14
 8003de4:	1000091e 	bne	r2,zero,8003e0c <XferDispatchPkt+0x158>
            retry_count++;
 8003de8:	e0bffb43 	ldbu	r2,-19(fp)
 8003dec:	10800044 	addi	r2,r2,1
 8003df0:	e0bffb45 	stb	r2,-19(fp)
            if( retry_count == USB_RETRY_LIMIT ) {
 8003df4:	e0bffb47 	ldb	r2,-19(fp)
 8003df8:	108000d8 	cmpnei	r2,r2,3
 8003dfc:	10000526 	beq	r2,zero,8003e14 <XferDispatchPkt+0x160>
                break;
            }
            else {
                continue;
 8003e00:	00000106 	br	8003e08 <XferDispatchPkt+0x154>
            nak_count++;
            if( nak_count == USB_NAK_LIMIT ) {
                break;
            }
            else {
                continue;
 8003e04:	0001883a 	nop
            else {
                continue;
            }
        }
        else break;
    }//while( 1 )
 8003e08:	003fbf06 	br	8003d08 <__alt_data_end+0xfc003d08>
            }
            else {
                continue;
            }
        }
        else break;
 8003e0c:	0001883a 	nop
 8003e10:	00000106 	br	8003e18 <XferDispatchPkt+0x164>
            }
        }
        if( rcode == hrTIMEOUT ) {
            retry_count++;
            if( retry_count == USB_RETRY_LIMIT ) {
                break;
 8003e14:	0001883a 	nop
                continue;
            }
        }
        else break;
    }//while( 1 )
    return( rcode );
 8003e18:	e0bffb03 	ldbu	r2,-20(fp)
}
 8003e1c:	e037883a 	mov	sp,fp
 8003e20:	dfc00117 	ldw	ra,4(sp)
 8003e24:	df000017 	ldw	fp,0(sp)
 8003e28:	dec00204 	addi	sp,sp,8
 8003e2c:	f800283a 	ret

08003e30 <XferInTransfer>:
/* IN transfer to arbitrary endpoint. Assumes PERADDR is set. Handles multiple packets if necessary. Transfers 'nbytes' bytes.
    Keep sending INs and writes data to memory area pointed by 'data' */
/* rcode 0 if no errors. rcode 01-0f is relayed from prvXferDispatchPkt(). Rcode f0 means RCVDAVIRQ error,
            fe USB xfer timeout */
BYTE XferInTransfer( BYTE addr/* not sure if it's necessary */, BYTE ep, WORD nbytes, BYTE* data, BYTE maxpktsize )
{
 8003e30:	defff804 	addi	sp,sp,-32
 8003e34:	dfc00715 	stw	ra,28(sp)
 8003e38:	df000615 	stw	fp,24(sp)
 8003e3c:	df000604 	addi	fp,sp,24
 8003e40:	2011883a 	mov	r8,r4
 8003e44:	2809883a 	mov	r4,r5
 8003e48:	3007883a 	mov	r3,r6
 8003e4c:	e1fffe15 	stw	r7,-8(fp)
 8003e50:	e0800217 	ldw	r2,8(fp)
 8003e54:	e23ffb05 	stb	r8,-20(fp)
 8003e58:	e13ffc05 	stb	r4,-16(fp)
 8003e5c:	e0fffd0d 	sth	r3,-12(fp)
 8003e60:	e0bfff05 	stb	r2,-4(fp)
 BYTE rcode;
 BYTE i;
 BYTE tmpbyte;
 BYTE pktsize;
 WORD xfrlen = 0;
 8003e64:	e03ffa0d 	sth	zero,-24(fp)
    MAXreg_wr( rHCTL, devtable[ addr ].epinfo[ ep ].rcvToggle );    //set toggle value
 8003e68:	e0fffb03 	ldbu	r3,-20(fp)
 8003e6c:	008200b4 	movhi	r2,2050
 8003e70:	10a1ca04 	addi	r2,r2,-30936
 8003e74:	180690fa 	slli	r3,r3,3
 8003e78:	10c5883a 	add	r2,r2,r3
 8003e7c:	10c00017 	ldw	r3,0(r2)
 8003e80:	e0bffc03 	ldbu	r2,-16(fp)
 8003e84:	100490fa 	slli	r2,r2,3
 8003e88:	1885883a 	add	r2,r3,r2
 8003e8c:	10800183 	ldbu	r2,6(r2)
 8003e90:	10803fcc 	andi	r2,r2,255
 8003e94:	100b883a 	mov	r5,r2
 8003e98:	01003a04 	movi	r4,232
 8003e9c:	80032d80 	call	80032d8 <MAXreg_wr>
    while( 1 ) { // use a 'return' to exit this loop
        rcode = XferDispatchPkt( tokIN, ep );           //IN packet to EP-'endpoint'. Function takes care of NAKS.
 8003ea0:	e0bffc03 	ldbu	r2,-16(fp)
 8003ea4:	100b883a 	mov	r5,r2
 8003ea8:	0009883a 	mov	r4,zero
 8003eac:	8003cb40 	call	8003cb4 <XferDispatchPkt>
 8003eb0:	e0bffa85 	stb	r2,-22(fp)
        if( rcode ) {
 8003eb4:	e0bffa83 	ldbu	r2,-22(fp)
 8003eb8:	10000226 	beq	r2,zero,8003ec4 <XferInTransfer+0x94>
            return( rcode );                            //should be 0, indicating ACK. Else return error code.
 8003ebc:	e0bffa83 	ldbu	r2,-22(fp)
 8003ec0:	00003a06 	br	8003fac <XferInTransfer+0x17c>
        }
        /* check for RCVDAVIRQ and generate error if not present */
        /* the only case when absence of RCVDAVIRQ makes sense is when toggle error occurred. Need to add handling for that */
        if(( MAXreg_rd( rHIRQ ) & bmRCVDAVIRQ ) == 0 ) {
 8003ec4:	01003204 	movi	r4,200
 8003ec8:	80034cc0 	call	80034cc <MAXreg_rd>
 8003ecc:	10803fcc 	andi	r2,r2,255
 8003ed0:	1080010c 	andi	r2,r2,4
 8003ed4:	1000021e 	bne	r2,zero,8003ee0 <XferInTransfer+0xb0>
            return ( 0xf0 );                            //receive error
 8003ed8:	00bffc04 	movi	r2,-16
 8003edc:	00003306 	br	8003fac <XferInTransfer+0x17c>
        }
        pktsize = MAXreg_rd( rRCVBC );                  //number of received bytes
 8003ee0:	01000c04 	movi	r4,48
 8003ee4:	80034cc0 	call	80034cc <MAXreg_rd>
 8003ee8:	e0bffac5 	stb	r2,-21(fp)
        //printf ("pktsize: %d\n", pktsize);
        data = MAXbytes_rd( rRCVFIFO, pktsize, data );
 8003eec:	e0bffac3 	ldbu	r2,-21(fp)
 8003ef0:	e1bffe17 	ldw	r6,-8(fp)
 8003ef4:	100b883a 	mov	r5,r2
 8003ef8:	01000204 	movi	r4,8
 8003efc:	80035400 	call	8003540 <MAXbytes_rd>
 8003f00:	e0bffe15 	stw	r2,-8(fp)
        MAXreg_wr( rHIRQ, bmRCVDAVIRQ );                // Clear the IRQ & free the buffer
 8003f04:	01400104 	movi	r5,4
 8003f08:	01003204 	movi	r4,200
 8003f0c:	80032d80 	call	80032d8 <MAXreg_wr>
        xfrlen += pktsize;                              // add this packet's byte count to total transfer length
 8003f10:	e0fffac3 	ldbu	r3,-21(fp)
 8003f14:	e0bffa0b 	ldhu	r2,-24(fp)
 8003f18:	1885883a 	add	r2,r3,r2
 8003f1c:	e0bffa0d 	sth	r2,-24(fp)
        /* The transfer is complete under two conditions:           */
        /* 1. The device sent a short packet (L.T. maxPacketSize)   */
        /* 2. 'nbytes' have been transferred.                       */
        if (( pktsize < maxpktsize ) || (xfrlen >= nbytes )) {    // have we transferred 'nbytes' bytes?
 8003f20:	e0fffac3 	ldbu	r3,-21(fp)
 8003f24:	e0bfff03 	ldbu	r2,-4(fp)
 8003f28:	18800336 	bltu	r3,r2,8003f38 <XferInTransfer+0x108>
 8003f2c:	e0fffa0b 	ldhu	r3,-24(fp)
 8003f30:	e0bffd0b 	ldhu	r2,-12(fp)
 8003f34:	18bfda36 	bltu	r3,r2,8003ea0 <__alt_data_end+0xfc003ea0>
            if( MAXreg_rd( rHRSL ) & bmRCVTOGRD ) {                 //save toggle value
 8003f38:	01003e04 	movi	r4,248
 8003f3c:	80034cc0 	call	80034cc <MAXreg_rd>
 8003f40:	10803fcc 	andi	r2,r2,255
 8003f44:	1080040c 	andi	r2,r2,16
 8003f48:	10000c26 	beq	r2,zero,8003f7c <XferInTransfer+0x14c>
                devtable[ addr ].epinfo[ ep ].rcvToggle = bmRCVTOG1;
 8003f4c:	e0fffb03 	ldbu	r3,-20(fp)
 8003f50:	008200b4 	movhi	r2,2050
 8003f54:	10a1ca04 	addi	r2,r2,-30936
 8003f58:	180690fa 	slli	r3,r3,3
 8003f5c:	10c5883a 	add	r2,r2,r3
 8003f60:	10c00017 	ldw	r3,0(r2)
 8003f64:	e0bffc03 	ldbu	r2,-16(fp)
 8003f68:	100490fa 	slli	r2,r2,3
 8003f6c:	1885883a 	add	r2,r3,r2
 8003f70:	00c00804 	movi	r3,32
 8003f74:	10c00185 	stb	r3,6(r2)
 8003f78:	00000b06 	br	8003fa8 <XferInTransfer+0x178>
            }
            else {
                devtable[ addr ].epinfo[ ep ].rcvToggle = bmRCVTOG0;
 8003f7c:	e0fffb03 	ldbu	r3,-20(fp)
 8003f80:	008200b4 	movhi	r2,2050
 8003f84:	10a1ca04 	addi	r2,r2,-30936
 8003f88:	180690fa 	slli	r3,r3,3
 8003f8c:	10c5883a 	add	r2,r2,r3
 8003f90:	10c00017 	ldw	r3,0(r2)
 8003f94:	e0bffc03 	ldbu	r2,-16(fp)
 8003f98:	100490fa 	slli	r2,r2,3
 8003f9c:	1885883a 	add	r2,r3,r2
 8003fa0:	00c00404 	movi	r3,16
 8003fa4:	10c00185 	stb	r3,6(r2)
            }
            return( 0 );
 8003fa8:	0005883a 	mov	r2,zero
        }
  }//while( 1 )
}
 8003fac:	e037883a 	mov	sp,fp
 8003fb0:	dfc00117 	ldw	ra,4(sp)
 8003fb4:	df000017 	ldw	fp,0(sp)
 8003fb8:	dec00204 	addi	sp,sp,8
 8003fbc:	f800283a 	ret

08003fc0 <USB_init>:
/* initialization of USB data structures */
void USB_init( void )
{
 8003fc0:	defffe04 	addi	sp,sp,-8
 8003fc4:	df000115 	stw	fp,4(sp)
 8003fc8:	df000104 	addi	fp,sp,4
  BYTE i;
    for( i = 0; i < ( USB_NUMDEVICES + 1 ); i++ ) {
 8003fcc:	e03fff05 	stb	zero,-4(fp)
 8003fd0:	00001006 	br	8004014 <USB_init+0x54>
        devtable[ i ].epinfo = NULL;       //clear device table
 8003fd4:	e0ffff03 	ldbu	r3,-4(fp)
 8003fd8:	008200b4 	movhi	r2,2050
 8003fdc:	10a1ca04 	addi	r2,r2,-30936
 8003fe0:	180690fa 	slli	r3,r3,3
 8003fe4:	10c5883a 	add	r2,r2,r3
 8003fe8:	10000015 	stw	zero,0(r2)
        devtable[ i ].devclass = 0;
 8003fec:	e0ffff03 	ldbu	r3,-4(fp)
 8003ff0:	008200b4 	movhi	r2,2050
 8003ff4:	10a1ca04 	addi	r2,r2,-30936
 8003ff8:	180690fa 	slli	r3,r3,3
 8003ffc:	10c5883a 	add	r2,r2,r3
 8004000:	10800104 	addi	r2,r2,4
 8004004:	10000005 	stb	zero,0(r2)
}
/* initialization of USB data structures */
void USB_init( void )
{
  BYTE i;
    for( i = 0; i < ( USB_NUMDEVICES + 1 ); i++ ) {
 8004008:	e0bfff03 	ldbu	r2,-4(fp)
 800400c:	10800044 	addi	r2,r2,1
 8004010:	e0bfff05 	stb	r2,-4(fp)
 8004014:	e0bfff03 	ldbu	r2,-4(fp)
 8004018:	10800270 	cmpltui	r2,r2,9
 800401c:	103fed1e 	bne	r2,zero,8003fd4 <__alt_data_end+0xfc003fd4>
        devtable[ i ].epinfo = NULL;       //clear device table
        devtable[ i ].devclass = 0;
    }
    devtable[ 0 ].epinfo = &dev0ep;  //set single ep for uninitialized device
 8004020:	008200b4 	movhi	r2,2050
 8004024:	10a1ca04 	addi	r2,r2,-30936
 8004028:	d0e6ee04 	addi	r3,gp,-25672
 800402c:	10c00015 	stw	r3,0(r2)
    dev0ep.MaxPktSize = 0;
 8004030:	d026ee8d 	sth	zero,-25670(gp)
    dev0ep.sndToggle = bmSNDTOG0;   //set DATA0/1 toggles to 0
 8004034:	00801004 	movi	r2,64
 8004038:	d0a6ef45 	stb	r2,-25667(gp)
    dev0ep.rcvToggle = bmRCVTOG0;
 800403c:	00800404 	movi	r2,16
 8004040:	d0a6ef85 	stb	r2,-25666(gp)
}
 8004044:	0001883a 	nop
 8004048:	e037883a 	mov	sp,fp
 800404c:	df000017 	ldw	fp,0(sp)
 8004050:	dec00104 	addi	sp,sp,4
 8004054:	f800283a 	ret

08004058 <USB_Task>:
/* error codes: 01-0f HRSLT        */
/* ff - unsupported device         */
/* fe - no address available       */
/* fd - no client driver available */
void USB_Task( void )
{
 8004058:	deffb204 	addi	sp,sp,-312
 800405c:	dfc04d15 	stw	ra,308(sp)
 8004060:	df004c15 	stw	fp,304(sp)
 8004064:	dc004b15 	stw	r16,300(sp)
 8004068:	df004c04 	addi	fp,sp,304
 USB_DEVICE_DESCRIPTOR buf;

 BYTE rcode, tmpdata;
 BYTE i;

    switch( usb_task_state & USB_STATE_MASK ) {
 800406c:	d0a00a03 	ldbu	r2,-32728(gp)
 8004070:	10803fcc 	andi	r2,r2,255
 8004074:	10803c0c 	andi	r2,r2,240
 8004078:	10c00820 	cmpeqi	r3,r2,32
 800407c:	1801121e 	bne	r3,zero,80044c8 <USB_Task+0x470>
 8004080:	10c00848 	cmpgei	r3,r2,33
 8004084:	1800041e 	bne	r3,zero,8004098 <USB_Task+0x40>
 8004088:	10000a26 	beq	r2,zero,80040b4 <USB_Task+0x5c>
 800408c:	10800420 	cmpeqi	r2,r2,16
 8004090:	10001b1e 	bne	r2,zero,8004100 <USB_Task+0xa8>
        case( USB_STATE_ERROR ):
            //vTaskDelay( LED_RATE ); //stay here if error
            break;//( USB_STATE_ERROR )
        default:
            //Should never get here
            break;
 8004094:	00017a06 	br	8004680 <USB_Task+0x628>
 USB_DEVICE_DESCRIPTOR buf;

 BYTE rcode, tmpdata;
 BYTE i;

    switch( usb_task_state & USB_STATE_MASK ) {
 8004098:	10c01020 	cmpeqi	r3,r2,64
 800409c:	18016f1e 	bne	r3,zero,800465c <USB_Task+0x604>
 80040a0:	10c03fe0 	cmpeqi	r3,r2,255
 80040a4:	18016f1e 	bne	r3,zero,8004664 <USB_Task+0x60c>
 80040a8:	10800c20 	cmpeqi	r2,r2,48
 80040ac:	1001441e 	bne	r2,zero,80045c0 <USB_Task+0x568>
        case( USB_STATE_ERROR ):
            //vTaskDelay( LED_RATE ); //stay here if error
            break;//( USB_STATE_ERROR )
        default:
            //Should never get here
            break;
 80040b0:	00017306 	br	8004680 <USB_Task+0x628>
 BYTE i;

    switch( usb_task_state & USB_STATE_MASK ) {
        /* Detached state - when nothing is connected to ( or just disconnected from) USB bus   */
        case( USB_STATE_DETACHED ):
            switch( usb_task_state ) {
 80040b4:	d0a00a03 	ldbu	r2,-32728(gp)
 80040b8:	10803fcc 	andi	r2,r2,255
 80040bc:	10c000e0 	cmpeqi	r3,r2,3
 80040c0:	1800091e 	bne	r3,zero,80040e8 <USB_Task+0x90>
 80040c4:	10c00120 	cmpeqi	r3,r2,4
 80040c8:	18000b1e 	bne	r3,zero,80040f8 <USB_Task+0xa0>
 80040cc:	10800060 	cmpeqi	r2,r2,1
 80040d0:	1000011e 	bne	r2,zero,80040d8 <USB_Task+0x80>
                    break;
                case( USB_DETACHED_SUBSTATE_ILLEGAL ):
                    /* don't know what to do yet */
                    break;
            }//switch( usb_task_state )
            break;//( USB_STATE_DETACHED ):
 80040d4:	00016a06 	br	8004680 <USB_Task+0x628>
        /* Detached state - when nothing is connected to ( or just disconnected from) USB bus   */
        case( USB_STATE_DETACHED ):
            switch( usb_task_state ) {
                case( USB_DETACHED_SUBSTATE_INITIALIZE ):
                    /* cleanup device data structures */
                    USB_init();
 80040d8:	8003fc00 	call	8003fc0 <USB_init>
                    usb_task_state = USB_DETACHED_SUBSTATE_WAIT_FOR_DEVICE;
 80040dc:	008000c4 	movi	r2,3
 80040e0:	d0a00a05 	stb	r2,-32728(gp)
                    break;
 80040e4:	00000506 	br	80040fc <USB_Task+0xa4>
                case( USB_DETACHED_SUBSTATE_WAIT_FOR_DEVICE ):
                    /* Do nothing */
                    MAXreg_wr(rHCTL,bmSAMPLEBUS);
 80040e8:	01400104 	movi	r5,4
 80040ec:	01003a04 	movi	r4,232
 80040f0:	80032d80 	call	80032d8 <MAXreg_wr>
                    break;
 80040f4:	00000106 	br	80040fc <USB_Task+0xa4>
                case( USB_DETACHED_SUBSTATE_ILLEGAL ):
                    /* don't know what to do yet */
                    break;
 80040f8:	0001883a 	nop
            }//switch( usb_task_state )
            break;//( USB_STATE_DETACHED ):
 80040fc:	00016006 	br	8004680 <USB_Task+0x628>
            /**/
        case( USB_STATE_ATTACHED ):                     //prepare for enumeration
            switch( usb_task_state ) {
 8004100:	d0a00a03 	ldbu	r2,-32728(gp)
 8004104:	10803fcc 	andi	r2,r2,255
 8004108:	10bffc04 	addi	r2,r2,-16
 800410c:	10c001a8 	cmpgeui	r3,r2,6
 8004110:	1801561e 	bne	r3,zero,800466c <USB_Task+0x614>
 8004114:	100690ba 	slli	r3,r2,2
 8004118:	00820034 	movhi	r2,2048
 800411c:	10904b04 	addi	r2,r2,16684
 8004120:	1885883a 	add	r2,r3,r2
 8004124:	10800017 	ldw	r2,0(r2)
 8004128:	1000683a 	jmp	r2
 800412c:	08004144 	addi	zero,at,261
 8004130:	0800417c 	xorhi	zero,at,261
 8004134:	080041b8 	rdprs	zero,at,262
 8004138:	080041dc 	xori	zero,at,263
 800413c:	0800421c 	xori	zero,at,264
 8004140:	08004230 	cmpltui	zero,at,264
 * alt_nticks() returns the elapsed number of system clock ticks since reset.
 */

static ALT_INLINE alt_u32 ALT_ALWAYS_INLINE alt_nticks (void)
{
  return _alt_nticks;
 8004144:	d0a70217 	ldw	r2,-25592(gp)
                case( USB_STATE_ATTACHED ):
                    usb_delay = (alt_nticks()*1000)/alt_ticks_per_second() + 200;           //initial settle 200ms
 8004148:	0140fa04 	movi	r5,1000
 800414c:	1009883a 	mov	r4,r2
 8004150:	8004a580 	call	8004a58 <__mulsi3>
 8004154:	1007883a 	mov	r3,r2
 * Obtain the system clock rate in ticks/s. 
 */

static ALT_INLINE alt_u32 ALT_ALWAYS_INLINE alt_ticks_per_second (void)
{
  return _alt_tick_rate;
 8004158:	d0a70117 	ldw	r2,-25596(gp)
 800415c:	100b883a 	mov	r5,r2
 8004160:	1809883a 	mov	r4,r3
 8004164:	800499c0 	call	800499c <__udivsi3>
 8004168:	10803204 	addi	r2,r2,200
 800416c:	d0a6f115 	stw	r2,-25660(gp)
                    usb_task_state = USB_ATTACHED_SUBSTATE_SETTLE;
 8004170:	00800444 	movi	r2,17
 8004174:	d0a00a05 	stb	r2,-32728(gp)
                    break;//case( USB_STATE_ATTACHED )
 8004178:	0000d206 	br	80044c4 <USB_Task+0x46c>
 * alt_nticks() returns the elapsed number of system clock ticks since reset.
 */

static ALT_INLINE alt_u32 ALT_ALWAYS_INLINE alt_nticks (void)
{
  return _alt_nticks;
 800417c:	d0a70217 	ldw	r2,-25592(gp)
                case( USB_ATTACHED_SUBSTATE_SETTLE ):   //waiting for settle timer to expire
                    if( (alt_nticks()*1000)/alt_ticks_per_second() > usb_delay ) {
 8004180:	0140fa04 	movi	r5,1000
 8004184:	1009883a 	mov	r4,r2
 8004188:	8004a580 	call	8004a58 <__mulsi3>
 800418c:	1007883a 	mov	r3,r2
 * Obtain the system clock rate in ticks/s. 
 */

static ALT_INLINE alt_u32 ALT_ALWAYS_INLINE alt_ticks_per_second (void)
{
  return _alt_tick_rate;
 8004190:	d0a70117 	ldw	r2,-25596(gp)
 8004194:	100b883a 	mov	r5,r2
 8004198:	1809883a 	mov	r4,r3
 800419c:	800499c0 	call	800499c <__udivsi3>
 80041a0:	1007883a 	mov	r3,r2
 80041a4:	d0a6f117 	ldw	r2,-25660(gp)
 80041a8:	10c0c32e 	bgeu	r2,r3,80044b8 <USB_Task+0x460>
                        usb_task_state = USB_ATTACHED_SUBSTATE_RESET_DEVICE;
 80041ac:	00800484 	movi	r2,18
 80041b0:	d0a00a05 	stb	r2,-32728(gp)
                    }
                    break;//case( USB_ATTACHED_SUBSTATE_SETTLE )
 80041b4:	0000c006 	br	80044b8 <USB_Task+0x460>
                case( USB_ATTACHED_SUBSTATE_RESET_DEVICE ):
                    MAXreg_wr( rHIRQ, bmBUSEVENTIRQ );                               //clear bus event IRQ
 80041b8:	01400044 	movi	r5,1
 80041bc:	01003204 	movi	r4,200
 80041c0:	80032d80 	call	80032d8 <MAXreg_wr>
                    MAXreg_wr( rHCTL, bmBUSRST );                                    //issue bus reset
 80041c4:	01400044 	movi	r5,1
 80041c8:	01003a04 	movi	r4,232
 80041cc:	80032d80 	call	80032d8 <MAXreg_wr>
                    usb_task_state = USB_ATTACHED_SUBSTATE_WAIT_RESET_COMPLETE;
 80041d0:	008004c4 	movi	r2,19
 80041d4:	d0a00a05 	stb	r2,-32728(gp)
                    break;//case( USB_ATTACHED_SUBSTATE_RESET_DEVICE )
 80041d8:	0000ba06 	br	80044c4 <USB_Task+0x46c>
                case( USB_ATTACHED_SUBSTATE_WAIT_RESET_COMPLETE ):                  //wait for bus reset and first SOF
                    if(( MAXreg_rd( rHCTL ) & bmBUSRST ) == 0 ) {
 80041dc:	01003a04 	movi	r4,232
 80041e0:	80034cc0 	call	80034cc <MAXreg_rd>
 80041e4:	10803fcc 	andi	r2,r2,255
 80041e8:	1080004c 	andi	r2,r2,1
 80041ec:	1000b41e 	bne	r2,zero,80044c0 <USB_Task+0x468>
                        tmpdata = MAXreg_rd( rMODE ) | bmSOFKAENAB;                 //start SOF generation
 80041f0:	01003604 	movi	r4,216
 80041f4:	80034cc0 	call	80034cc <MAXreg_rd>
 80041f8:	10800214 	ori	r2,r2,8
 80041fc:	e0bfb945 	stb	r2,-283(fp)
                        MAXreg_wr( rMODE, tmpdata );
 8004200:	e0bfb943 	ldbu	r2,-283(fp)
 8004204:	100b883a 	mov	r5,r2
 8004208:	01003604 	movi	r4,216
 800420c:	80032d80 	call	80032d8 <MAXreg_wr>
                        usb_task_state = USB_ATTACHED_SUBSTATE_WAIT_SOF;
 8004210:	00800504 	movi	r2,20
 8004214:	d0a00a05 	stb	r2,-32728(gp)
                    }
                    break;//case( USB_ATTACHED_SUBSTATE_WAIT_RESET_COMPLETE )
 8004218:	0000a906 	br	80044c0 <USB_Task+0x468>
                case( USB_ATTACHED_SUBSTATE_WAIT_SOF ):
                    if( MAXreg_rd( rHIRQ ) | bmFRAMEIRQ ) {                     //when first SOF received we can continue
 800421c:	01003204 	movi	r4,200
 8004220:	80034cc0 	call	80034cc <MAXreg_rd>
                        usb_task_state = USB_ATTACHED_SUBSTATE_GET_DEVICE_DESCRIPTOR_SIZE;
 8004224:	00800544 	movi	r2,21
 8004228:	d0a00a05 	stb	r2,-32728(gp)
                    }
                    break;//case( USB_ATTACHED_SUBSTATE_WAIT_SOF )
 800422c:	0000a506 	br	80044c4 <USB_Task+0x46c>
                case( USB_ATTACHED_SUBSTATE_GET_DEVICE_DESCRIPTOR_SIZE ):   //send request for first 8 bytes of device descriptor
                    devtable[ 0 ].epinfo->MaxPktSize = 0x0008;             //fill max packet size with minimum allowed
 8004230:	008200b4 	movhi	r2,2050
 8004234:	10a1ca04 	addi	r2,r2,-30936
 8004238:	10800017 	ldw	r2,0(r2)
 800423c:	00c00204 	movi	r3,8
 8004240:	10c0008d 	sth	r3,2(r2)
                	rcode = XferGetDevDescr( 0, 0, 8, (BYTE *)&buf );       //get device descriptor size
 8004244:	e0bfba04 	addi	r2,fp,-280
 8004248:	d8800415 	stw	r2,16(sp)
 800424c:	00800204 	movi	r2,8
 8004250:	d8800315 	stw	r2,12(sp)
 8004254:	d8000215 	stw	zero,8(sp)
 8004258:	00800044 	movi	r2,1
 800425c:	d8800115 	stw	r2,4(sp)
 8004260:	d8000015 	stw	zero,0(sp)
 8004264:	01c00184 	movi	r7,6
 8004268:	01802004 	movi	r6,128
 800426c:	000b883a 	mov	r5,zero
 8004270:	0009883a 	mov	r4,zero
 8004274:	8003a0c0 	call	8003a0c <XferCtrlReq>
 8004278:	e0bfb985 	stb	r2,-282(fp)
                    if( rcode == 0 ) {
 800427c:	e0bfb983 	ldbu	r2,-282(fp)
 8004280:	1000861e 	bne	r2,zero,800449c <USB_Task+0x444>
                        devtable[ 0 ].epinfo->MaxPktSize = buf.bMaxPacketSize0;
 8004284:	008200b4 	movhi	r2,2050
 8004288:	10a1ca04 	addi	r2,r2,-30936
 800428c:	10800017 	ldw	r2,0(r2)
 8004290:	e0ffbbc3 	ldbu	r3,-273(fp)
 8004294:	18c03fcc 	andi	r3,r3,255
 8004298:	10c0008d 	sth	r3,2(r2)

                        rcode = XferGetDevDescr( 0, 0, buf.bLength, (BYTE *)&buf );     //get full descriptor
 800429c:	e0bfba03 	ldbu	r2,-280(fp)
 80042a0:	10803fcc 	andi	r2,r2,255
 80042a4:	e0ffba04 	addi	r3,fp,-280
 80042a8:	d8c00415 	stw	r3,16(sp)
 80042ac:	d8800315 	stw	r2,12(sp)
 80042b0:	d8000215 	stw	zero,8(sp)
 80042b4:	00800044 	movi	r2,1
 80042b8:	d8800115 	stw	r2,4(sp)
 80042bc:	d8000015 	stw	zero,0(sp)
 80042c0:	01c00184 	movi	r7,6
 80042c4:	01802004 	movi	r6,128
 80042c8:	000b883a 	mov	r5,zero
 80042cc:	0009883a 	mov	r4,zero
 80042d0:	8003a0c0 	call	8003a0c <XferCtrlReq>
 80042d4:	e0bfb985 	stb	r2,-282(fp)
                        //pull the string descriptor for the product if it exists
            			//hackish, store this somewhere
                        if (buf.iManufacturer != 0)
 80042d8:	e0bfbd83 	ldbu	r2,-266(fp)
 80042dc:	10803fcc 	andi	r2,r2,255
 80042e0:	10003426 	beq	r2,zero,80043b4 <USB_Task+0x35c>
                		{
                        	USB_STRING_DESCRIPTOR strDesc;
                			rcode = XferGetStrDescr( 0, 0, 2, buf.iManufacturer, LANG_EN_US, (BYTE *)&strDesc);
 80042e4:	e0bfbd83 	ldbu	r2,-266(fp)
 80042e8:	10803fcc 	andi	r2,r2,255
 80042ec:	e0ffbe84 	addi	r3,fp,-262
 80042f0:	d8c00415 	stw	r3,16(sp)
 80042f4:	00c00084 	movi	r3,2
 80042f8:	d8c00315 	stw	r3,12(sp)
 80042fc:	00c10244 	movi	r3,1033
 8004300:	d8c00215 	stw	r3,8(sp)
 8004304:	00c000c4 	movi	r3,3
 8004308:	d8c00115 	stw	r3,4(sp)
 800430c:	d8800015 	stw	r2,0(sp)
 8004310:	01c00184 	movi	r7,6
 8004314:	01802004 	movi	r6,128
 8004318:	000b883a 	mov	r5,zero
 800431c:	0009883a 	mov	r4,zero
 8004320:	8003a0c0 	call	8003a0c <XferCtrlReq>
 8004324:	e0bfb985 	stb	r2,-282(fp)
                			rcode = XferGetStrDescr( 0, 0, strDesc.bLength, buf.iManufacturer, LANG_EN_US, (BYTE *)&strDesc);
 8004328:	e0bfbd83 	ldbu	r2,-266(fp)
 800432c:	10803fcc 	andi	r2,r2,255
 8004330:	e0ffbe83 	ldbu	r3,-262(fp)
 8004334:	18c03fcc 	andi	r3,r3,255
 8004338:	e13fbe84 	addi	r4,fp,-262
 800433c:	d9000415 	stw	r4,16(sp)
 8004340:	d8c00315 	stw	r3,12(sp)
 8004344:	00c10244 	movi	r3,1033
 8004348:	d8c00215 	stw	r3,8(sp)
 800434c:	00c000c4 	movi	r3,3
 8004350:	d8c00115 	stw	r3,4(sp)
 8004354:	d8800015 	stw	r2,0(sp)
 8004358:	01c00184 	movi	r7,6
 800435c:	01802004 	movi	r6,128
 8004360:	000b883a 	mov	r5,zero
 8004364:	0009883a 	mov	r4,zero
 8004368:	8003a0c0 	call	8003a0c <XferCtrlReq>
 800436c:	e0bfb985 	stb	r2,-282(fp)
                			printf ("Mfgr string(%i): %s\n", buf.iManufacturer, ConvUTF8ToStr(strDesc.bString, (strDesc.bLength>>1)-1));
 8004370:	e0bfbd83 	ldbu	r2,-266(fp)
 8004374:	14003fcc 	andi	r16,r2,255
 8004378:	e0bfbe83 	ldbu	r2,-262(fp)
 800437c:	10803fcc 	andi	r2,r2,255
 8004380:	1004d07a 	srli	r2,r2,1
 8004384:	10bfffc4 	addi	r2,r2,-1
 8004388:	10c03fcc 	andi	r3,r2,255
 800438c:	e0bfbe84 	addi	r2,fp,-262
 8004390:	10800084 	addi	r2,r2,2
 8004394:	180b883a 	mov	r5,r3
 8004398:	1009883a 	mov	r4,r2
 800439c:	80048200 	call	8004820 <ConvUTF8ToStr>
 80043a0:	100d883a 	mov	r6,r2
 80043a4:	800b883a 	mov	r5,r16
 80043a8:	01020074 	movhi	r4,2049
 80043ac:	2112ee04 	addi	r4,r4,19384
 80043b0:	80055540 	call	8005554 <printf>
                		}
                		if (buf.iProduct != 0)
 80043b4:	e0bfbdc3 	ldbu	r2,-265(fp)
 80043b8:	10803fcc 	andi	r2,r2,255
 80043bc:	10003426 	beq	r2,zero,8004490 <USB_Task+0x438>
                		{
                        	USB_STRING_DESCRIPTOR strDesc;
                        	rcode = XferGetStrDescr( 0, 0, 2, buf.iProduct, LANG_EN_US, (BYTE *)&strDesc);
 80043c0:	e0bfbdc3 	ldbu	r2,-265(fp)
 80043c4:	10803fcc 	andi	r2,r2,255
 80043c8:	e0ffbe84 	addi	r3,fp,-262
 80043cc:	d8c00415 	stw	r3,16(sp)
 80043d0:	00c00084 	movi	r3,2
 80043d4:	d8c00315 	stw	r3,12(sp)
 80043d8:	00c10244 	movi	r3,1033
 80043dc:	d8c00215 	stw	r3,8(sp)
 80043e0:	00c000c4 	movi	r3,3
 80043e4:	d8c00115 	stw	r3,4(sp)
 80043e8:	d8800015 	stw	r2,0(sp)
 80043ec:	01c00184 	movi	r7,6
 80043f0:	01802004 	movi	r6,128
 80043f4:	000b883a 	mov	r5,zero
 80043f8:	0009883a 	mov	r4,zero
 80043fc:	8003a0c0 	call	8003a0c <XferCtrlReq>
 8004400:	e0bfb985 	stb	r2,-282(fp)
                			rcode = XferGetStrDescr( 0, 0, strDesc.bLength, buf.iProduct, LANG_EN_US, (BYTE *)&strDesc);
 8004404:	e0bfbdc3 	ldbu	r2,-265(fp)
 8004408:	10803fcc 	andi	r2,r2,255
 800440c:	e0ffbe83 	ldbu	r3,-262(fp)
 8004410:	18c03fcc 	andi	r3,r3,255
 8004414:	e13fbe84 	addi	r4,fp,-262
 8004418:	d9000415 	stw	r4,16(sp)
 800441c:	d8c00315 	stw	r3,12(sp)
 8004420:	00c10244 	movi	r3,1033
 8004424:	d8c00215 	stw	r3,8(sp)
 8004428:	00c000c4 	movi	r3,3
 800442c:	d8c00115 	stw	r3,4(sp)
 8004430:	d8800015 	stw	r2,0(sp)
 8004434:	01c00184 	movi	r7,6
 8004438:	01802004 	movi	r6,128
 800443c:	000b883a 	mov	r5,zero
 8004440:	0009883a 	mov	r4,zero
 8004444:	8003a0c0 	call	8003a0c <XferCtrlReq>
 8004448:	e0bfb985 	stb	r2,-282(fp)
                			printf ("Product string(%i): %s\n", buf.iProduct, ConvUTF8ToStr(strDesc.bString, (strDesc.bLength>>1)-1));
 800444c:	e0bfbdc3 	ldbu	r2,-265(fp)
 8004450:	14003fcc 	andi	r16,r2,255
 8004454:	e0bfbe83 	ldbu	r2,-262(fp)
 8004458:	10803fcc 	andi	r2,r2,255
 800445c:	1004d07a 	srli	r2,r2,1
 8004460:	10bfffc4 	addi	r2,r2,-1
 8004464:	10c03fcc 	andi	r3,r2,255
 8004468:	e0bfbe84 	addi	r2,fp,-262
 800446c:	10800084 	addi	r2,r2,2
 8004470:	180b883a 	mov	r5,r3
 8004474:	1009883a 	mov	r4,r2
 8004478:	80048200 	call	8004820 <ConvUTF8ToStr>
 800447c:	100d883a 	mov	r6,r2
 8004480:	800b883a 	mov	r5,r16
 8004484:	01020074 	movhi	r4,2049
 8004488:	2112f404 	addi	r4,r4,19408
 800448c:	80055540 	call	8005554 <printf>
                		}
                        usb_task_state = USB_STATE_ADDRESSING;
 8004490:	00800804 	movi	r2,32
 8004494:	d0a00a05 	stb	r2,-32728(gp)
                    else {
                        usb_error = rcode;
                        last_usb_task_state = usb_task_state;
                        usb_task_state = USB_STATE_ERROR;
                    }
                    break;//case( USB_ATTACHED_SUBSTATE_GET_DEVICE_DESCRIPTOR_SIZE ):
 8004498:	00000a06 	br	80044c4 <USB_Task+0x46c>
                		}
                        usb_task_state = USB_STATE_ADDRESSING;

                    }
                    else {
                        usb_error = rcode;
 800449c:	e0bfb983 	ldbu	r2,-282(fp)
 80044a0:	d0a6f245 	stb	r2,-25655(gp)
                        last_usb_task_state = usb_task_state;
 80044a4:	d0a00a03 	ldbu	r2,-32728(gp)
 80044a8:	d0a6f005 	stb	r2,-25664(gp)
                        usb_task_state = USB_STATE_ERROR;
 80044ac:	00bfffc4 	movi	r2,-1
 80044b0:	d0a00a05 	stb	r2,-32728(gp)
                    }
                    break;//case( USB_ATTACHED_SUBSTATE_GET_DEVICE_DESCRIPTOR_SIZE ):
 80044b4:	00000306 	br	80044c4 <USB_Task+0x46c>
                    break;//case( USB_STATE_ATTACHED )
                case( USB_ATTACHED_SUBSTATE_SETTLE ):   //waiting for settle timer to expire
                    if( (alt_nticks()*1000)/alt_ticks_per_second() > usb_delay ) {
                        usb_task_state = USB_ATTACHED_SUBSTATE_RESET_DEVICE;
                    }
                    break;//case( USB_ATTACHED_SUBSTATE_SETTLE )
 80044b8:	0001883a 	nop
 80044bc:	00006b06 	br	800466c <USB_Task+0x614>
                    if(( MAXreg_rd( rHCTL ) & bmBUSRST ) == 0 ) {
                        tmpdata = MAXreg_rd( rMODE ) | bmSOFKAENAB;                 //start SOF generation
                        MAXreg_wr( rMODE, tmpdata );
                        usb_task_state = USB_ATTACHED_SUBSTATE_WAIT_SOF;
                    }
                    break;//case( USB_ATTACHED_SUBSTATE_WAIT_RESET_COMPLETE )
 80044c0:	0001883a 	nop
                        last_usb_task_state = usb_task_state;
                        usb_task_state = USB_STATE_ERROR;
                    }
                    break;//case( USB_ATTACHED_SUBSTATE_GET_DEVICE_DESCRIPTOR_SIZE ):
            }//switch( usb_task_state )
            break;//case ( USB_STATE_ATTACHED )
 80044c4:	00006906 	br	800466c <USB_Task+0x614>
        case( USB_STATE_ADDRESSING ):   //give device an address
            for( i = 1; i < USB_NUMDEVICES; i++ ) {
 80044c8:	00800044 	movi	r2,1
 80044cc:	e0bfb905 	stb	r2,-284(fp)
 80044d0:	00002d06 	br	8004588 <USB_Task+0x530>
                if( devtable[ i ].epinfo == NULL ) {
 80044d4:	e0ffb903 	ldbu	r3,-284(fp)
 80044d8:	008200b4 	movhi	r2,2050
 80044dc:	10a1ca04 	addi	r2,r2,-30936
 80044e0:	180690fa 	slli	r3,r3,3
 80044e4:	10c5883a 	add	r2,r2,r3
 80044e8:	10800017 	ldw	r2,0(r2)
 80044ec:	1000231e 	bne	r2,zero,800457c <USB_Task+0x524>
                    devtable[ i ].epinfo = devtable[ 0 ].epinfo;        //set correct MaxPktSize
 80044f0:	e13fb903 	ldbu	r4,-284(fp)
 80044f4:	008200b4 	movhi	r2,2050
 80044f8:	10a1ca04 	addi	r2,r2,-30936
 80044fc:	10c00017 	ldw	r3,0(r2)
 8004500:	008200b4 	movhi	r2,2050
 8004504:	10a1ca04 	addi	r2,r2,-30936
 8004508:	200890fa 	slli	r4,r4,3
 800450c:	1105883a 	add	r2,r2,r4
 8004510:	10c00015 	stw	r3,0(r2)
                    //devtable[ i ].epinfo->MaxPktSize = devtable[ 0 ].epinfo->MaxPktSize;  //copy uninitialized device record to have correct MaxPktSize
                    rcode = XferSetAddr( 0, 0, i );
 8004514:	e0bfb903 	ldbu	r2,-284(fp)
 8004518:	d8000415 	stw	zero,16(sp)
 800451c:	d8000315 	stw	zero,12(sp)
 8004520:	d8000215 	stw	zero,8(sp)
 8004524:	d8000115 	stw	zero,4(sp)
 8004528:	d8800015 	stw	r2,0(sp)
 800452c:	01c00144 	movi	r7,5
 8004530:	000d883a 	mov	r6,zero
 8004534:	000b883a 	mov	r5,zero
 8004538:	0009883a 	mov	r4,zero
 800453c:	8003a0c0 	call	8003a0c <XferCtrlReq>
 8004540:	e0bfb985 	stb	r2,-282(fp)
                    if( rcode == 0 ) {
 8004544:	e0bfb983 	ldbu	r2,-282(fp)
 8004548:	1000051e 	bne	r2,zero,8004560 <USB_Task+0x508>
                        tmp_addr = i;
 800454c:	e0bfb903 	ldbu	r2,-284(fp)
 8004550:	d0a6f205 	stb	r2,-25656(gp)
                        usb_task_state = USB_STATE_CONFIGURING;
 8004554:	00800c04 	movi	r2,48
 8004558:	d0a00a05 	stb	r2,-32728(gp)
                    else {
                        usb_error = rcode;          //set address error
                        last_usb_task_state = usb_task_state;
                        usb_task_state = USB_STATE_ERROR;
                    }
                    break;  //break if address assigned or error occurred during address assignment attempt
 800455c:	00000d06 	br	8004594 <USB_Task+0x53c>
                    if( rcode == 0 ) {
                        tmp_addr = i;
                        usb_task_state = USB_STATE_CONFIGURING;
                    }
                    else {
                        usb_error = rcode;          //set address error
 8004560:	e0bfb983 	ldbu	r2,-282(fp)
 8004564:	d0a6f245 	stb	r2,-25655(gp)
                        last_usb_task_state = usb_task_state;
 8004568:	d0a00a03 	ldbu	r2,-32728(gp)
 800456c:	d0a6f005 	stb	r2,-25664(gp)
                        usb_task_state = USB_STATE_ERROR;
 8004570:	00bfffc4 	movi	r2,-1
 8004574:	d0a00a05 	stb	r2,-32728(gp)
                    }
                    break;  //break if address assigned or error occurred during address assignment attempt
 8004578:	00000606 	br	8004594 <USB_Task+0x53c>
                    }
                    break;//case( USB_ATTACHED_SUBSTATE_GET_DEVICE_DESCRIPTOR_SIZE ):
            }//switch( usb_task_state )
            break;//case ( USB_STATE_ATTACHED )
        case( USB_STATE_ADDRESSING ):   //give device an address
            for( i = 1; i < USB_NUMDEVICES; i++ ) {
 800457c:	e0bfb903 	ldbu	r2,-284(fp)
 8004580:	10800044 	addi	r2,r2,1
 8004584:	e0bfb905 	stb	r2,-284(fp)
 8004588:	e0bfb903 	ldbu	r2,-284(fp)
 800458c:	10800230 	cmpltui	r2,r2,8
 8004590:	103fd01e 	bne	r2,zero,80044d4 <__alt_data_end+0xfc0044d4>
                        usb_task_state = USB_STATE_ERROR;
                    }
                    break;  //break if address assigned or error occurred during address assignment attempt
                }
            }
            if( usb_task_state == USB_STATE_ADDRESSING ) {
 8004594:	d0a00a03 	ldbu	r2,-32728(gp)
 8004598:	10803fcc 	andi	r2,r2,255
 800459c:	10800818 	cmpnei	r2,r2,32
 80045a0:	1000341e 	bne	r2,zero,8004674 <USB_Task+0x61c>
                usb_error = 0xfe;
 80045a4:	00bfff84 	movi	r2,-2
 80045a8:	d0a6f245 	stb	r2,-25655(gp)
                last_usb_task_state = usb_task_state;
 80045ac:	d0a00a03 	ldbu	r2,-32728(gp)
 80045b0:	d0a6f005 	stb	r2,-25664(gp)
                usb_task_state = USB_STATE_ERROR;
 80045b4:	00bfffc4 	movi	r2,-1
 80045b8:	d0a00a05 	stb	r2,-32728(gp)
            }
            break;//case ( USB_STATE_ADDRESSING )
 80045bc:	00002d06 	br	8004674 <USB_Task+0x61c>
        case( USB_STATE_CONFIGURING ):              //checking for driver
			//run device class probes until one returns TRUE
            for( i = 0; i < USB_NUMCLASSES; i++ ) {
 80045c0:	e03fb905 	stb	zero,-284(fp)
 80045c4:	00001706 	br	8004624 <USB_Task+0x5cc>
                rcode = ClientDriverTable[ i ].Initialize( tmp_addr, 0 );
 80045c8:	e0bfb903 	ldbu	r2,-284(fp)
 80045cc:	04020074 	movhi	r16,2049
 80045d0:	8413ba04 	addi	r16,r16,20200
 80045d4:	01400304 	movi	r5,12
 80045d8:	1009883a 	mov	r4,r2
 80045dc:	8004a580 	call	8004a58 <__mulsi3>
 80045e0:	8085883a 	add	r2,r16,r2
 80045e4:	10800017 	ldw	r2,0(r2)
 80045e8:	d0e6f203 	ldbu	r3,-25656(gp)
 80045ec:	18c03fcc 	andi	r3,r3,255
 80045f0:	000b883a 	mov	r5,zero
 80045f4:	1809883a 	mov	r4,r3
 80045f8:	103ee83a 	callr	r2
 80045fc:	e0bfb985 	stb	r2,-282(fp)
                if( rcode == TRUE ) {
 8004600:	e0bfb983 	ldbu	r2,-282(fp)
 8004604:	10800058 	cmpnei	r2,r2,1
 8004608:	1000031e 	bne	r2,zero,8004618 <USB_Task+0x5c0>
			        usb_task_state = USB_STATE_RUNNING;
 800460c:	00801004 	movi	r2,64
 8004610:	d0a00a05 	stb	r2,-32728(gp)
                    break;
 8004614:	00000606 	br	8004630 <USB_Task+0x5d8>
                usb_task_state = USB_STATE_ERROR;
            }
            break;//case ( USB_STATE_ADDRESSING )
        case( USB_STATE_CONFIGURING ):              //checking for driver
			//run device class probes until one returns TRUE
            for( i = 0; i < USB_NUMCLASSES; i++ ) {
 8004618:	e0bfb903 	ldbu	r2,-284(fp)
 800461c:	10800044 	addi	r2,r2,1
 8004620:	e0bfb905 	stb	r2,-284(fp)
 8004624:	e0bfb903 	ldbu	r2,-284(fp)
 8004628:	10800130 	cmpltui	r2,r2,4
 800462c:	103fe61e 	bne	r2,zero,80045c8 <__alt_data_end+0xfc0045c8>
                if( rcode == TRUE ) {
			        usb_task_state = USB_STATE_RUNNING;
                    break;
                }
            }
            if( usb_task_state == USB_STATE_CONFIGURING ) {
 8004630:	d0a00a03 	ldbu	r2,-32728(gp)
 8004634:	10803fcc 	andi	r2,r2,255
 8004638:	10800c18 	cmpnei	r2,r2,48
 800463c:	10000f1e 	bne	r2,zero,800467c <USB_Task+0x624>
                usb_error = 0xfd;
 8004640:	00bfff44 	movi	r2,-3
 8004644:	d0a6f245 	stb	r2,-25655(gp)
                last_usb_task_state = usb_task_state;
 8004648:	d0a00a03 	ldbu	r2,-32728(gp)
 800464c:	d0a6f005 	stb	r2,-25664(gp)
                usb_task_state = USB_STATE_ERROR;
 8004650:	00bfffc4 	movi	r2,-1
 8004654:	d0a00a05 	stb	r2,-32728(gp)
            }
            break;//( USB_STATE_CONFIGURING )
 8004658:	00000806 	br	800467c <USB_Task+0x624>
        case( USB_STATE_RUNNING ):
          //vTaskDelay( LED_RATE );
            break;//( USB_STATE_RUNNING )
 800465c:	0001883a 	nop
 8004660:	00000706 	br	8004680 <USB_Task+0x628>
        case( USB_STATE_ERROR ):
            //vTaskDelay( LED_RATE ); //stay here if error
            break;//( USB_STATE_ERROR )
 8004664:	0001883a 	nop
 8004668:	00000506 	br	8004680 <USB_Task+0x628>
                        last_usb_task_state = usb_task_state;
                        usb_task_state = USB_STATE_ERROR;
                    }
                    break;//case( USB_ATTACHED_SUBSTATE_GET_DEVICE_DESCRIPTOR_SIZE ):
            }//switch( usb_task_state )
            break;//case ( USB_STATE_ATTACHED )
 800466c:	0001883a 	nop
 8004670:	00000306 	br	8004680 <USB_Task+0x628>
            if( usb_task_state == USB_STATE_ADDRESSING ) {
                usb_error = 0xfe;
                last_usb_task_state = usb_task_state;
                usb_task_state = USB_STATE_ERROR;
            }
            break;//case ( USB_STATE_ADDRESSING )
 8004674:	0001883a 	nop
 8004678:	00000106 	br	8004680 <USB_Task+0x628>
            if( usb_task_state == USB_STATE_CONFIGURING ) {
                usb_error = 0xfd;
                last_usb_task_state = usb_task_state;
                usb_task_state = USB_STATE_ERROR;
            }
            break;//( USB_STATE_CONFIGURING )
 800467c:	0001883a 	nop
            break;//( USB_STATE_ERROR )
        default:
            //Should never get here
            break;
    }//switch( usb_task_state & STATE_MASK )
}
 8004680:	0001883a 	nop
 8004684:	e6ffff04 	addi	sp,fp,-4
 8004688:	dfc00217 	ldw	ra,8(sp)
 800468c:	df000117 	ldw	fp,4(sp)
 8004690:	dc000017 	ldw	r16,0(sp)
 8004694:	dec00304 	addi	sp,sp,12
 8004698:	f800283a 	ret

0800469c <MSDProbe>:

